ARM GAS  C:\Users\Digi-Key\AppData\Local\Temp\ccjc2iXH.s 			page 1


   1              		.syntax unified
   2              		.cpu cortex-m3
   3              		.fpu softvfp
   4              		.eabi_attribute 20, 1
   5              		.eabi_attribute 21, 1
   6              		.eabi_attribute 23, 3
   7              		.eabi_attribute 24, 1
   8              		.eabi_attribute 25, 1
   9              		.eabi_attribute 26, 1
  10              		.eabi_attribute 30, 1
  11              		.eabi_attribute 34, 1
  12              		.eabi_attribute 18, 4
  13              		.thumb
  14              		.file	"cyfitter_cfg.c"
  15              		.text
  16              	.Ltext0:
  17              		.cfi_sections	.debug_frame
  18              		.section	.text.CyClockStartupError,"ax",%progbits
  19              		.align	2
  20              		.thumb
  21              		.thumb_func
  22              		.type	CyClockStartupError, %function
  23              	CyClockStartupError:
  24              	.LFB3:
  25              		.file 1 ".\\Generated_Source\\PSoC5\\cyfitter_cfg.c"
   1:.\Generated_Source\PSoC5/cyfitter_cfg.c **** /*******************************************************************************
   2:.\Generated_Source\PSoC5/cyfitter_cfg.c **** * FILENAME: cyfitter_cfg.c
   3:.\Generated_Source\PSoC5/cyfitter_cfg.c **** * 
   4:.\Generated_Source\PSoC5/cyfitter_cfg.c **** * PSoC Creator  3.2 SP1
   5:.\Generated_Source\PSoC5/cyfitter_cfg.c **** *
   6:.\Generated_Source\PSoC5/cyfitter_cfg.c **** * DESCRIPTION:
   7:.\Generated_Source\PSoC5/cyfitter_cfg.c **** * This file contains device initialization code.
   8:.\Generated_Source\PSoC5/cyfitter_cfg.c **** * Except for the user defined sections in CyClockStartupError(), this file should not be modified.
   9:.\Generated_Source\PSoC5/cyfitter_cfg.c **** * This file is automatically generated by PSoC Creator.
  10:.\Generated_Source\PSoC5/cyfitter_cfg.c **** *
  11:.\Generated_Source\PSoC5/cyfitter_cfg.c **** ********************************************************************************
  12:.\Generated_Source\PSoC5/cyfitter_cfg.c **** * Copyright (c) 2007-2015 Cypress Semiconductor.  All rights reserved.
  13:.\Generated_Source\PSoC5/cyfitter_cfg.c **** * You may use this file only in accordance with the license, terms, conditions, 
  14:.\Generated_Source\PSoC5/cyfitter_cfg.c **** * disclaimers, and limitations in the end user license agreement accompanying 
  15:.\Generated_Source\PSoC5/cyfitter_cfg.c **** * the software package with which this file was provided.
  16:.\Generated_Source\PSoC5/cyfitter_cfg.c **** ********************************************************************************/
  17:.\Generated_Source\PSoC5/cyfitter_cfg.c **** 
  18:.\Generated_Source\PSoC5/cyfitter_cfg.c **** #include <string.h>
  19:.\Generated_Source\PSoC5/cyfitter_cfg.c **** #include "cytypes.h"
  20:.\Generated_Source\PSoC5/cyfitter_cfg.c **** #include "cydevice_trm.h"
  21:.\Generated_Source\PSoC5/cyfitter_cfg.c **** #include "cyfitter.h"
  22:.\Generated_Source\PSoC5/cyfitter_cfg.c **** #include "CyLib.h"
  23:.\Generated_Source\PSoC5/cyfitter_cfg.c **** #include "cyfitter_cfg.h"
  24:.\Generated_Source\PSoC5/cyfitter_cfg.c **** 
  25:.\Generated_Source\PSoC5/cyfitter_cfg.c **** #define CY_NEED_CYCLOCKSTARTUPERROR 1
  26:.\Generated_Source\PSoC5/cyfitter_cfg.c **** 
  27:.\Generated_Source\PSoC5/cyfitter_cfg.c **** 
  28:.\Generated_Source\PSoC5/cyfitter_cfg.c **** #if defined(__GNUC__) || defined(__ARMCC_VERSION)
  29:.\Generated_Source\PSoC5/cyfitter_cfg.c ****     #define CYPACKED 
  30:.\Generated_Source\PSoC5/cyfitter_cfg.c ****     #define CYPACKED_ATTR __attribute__ ((packed))
  31:.\Generated_Source\PSoC5/cyfitter_cfg.c ****     #define CYALIGNED __attribute__ ((aligned))
  32:.\Generated_Source\PSoC5/cyfitter_cfg.c ****     #define CY_CFG_UNUSED __attribute__ ((unused))
ARM GAS  C:\Users\Digi-Key\AppData\Local\Temp\ccjc2iXH.s 			page 2


  33:.\Generated_Source\PSoC5/cyfitter_cfg.c ****     #define CY_CFG_SECTION __attribute__ ((section(".psocinit")))
  34:.\Generated_Source\PSoC5/cyfitter_cfg.c ****     
  35:.\Generated_Source\PSoC5/cyfitter_cfg.c ****     #if defined(__ARMCC_VERSION)
  36:.\Generated_Source\PSoC5/cyfitter_cfg.c ****         #define CY_CFG_MEMORY_BARRIER() __memory_changed()
  37:.\Generated_Source\PSoC5/cyfitter_cfg.c ****     #else
  38:.\Generated_Source\PSoC5/cyfitter_cfg.c ****         #define CY_CFG_MEMORY_BARRIER() __sync_synchronize()
  39:.\Generated_Source\PSoC5/cyfitter_cfg.c ****     #endif
  40:.\Generated_Source\PSoC5/cyfitter_cfg.c ****     
  41:.\Generated_Source\PSoC5/cyfitter_cfg.c **** #elif defined(__ICCARM__)
  42:.\Generated_Source\PSoC5/cyfitter_cfg.c ****     #include <intrinsics.h>
  43:.\Generated_Source\PSoC5/cyfitter_cfg.c **** 
  44:.\Generated_Source\PSoC5/cyfitter_cfg.c ****     #define CYPACKED __packed
  45:.\Generated_Source\PSoC5/cyfitter_cfg.c ****     #define CYPACKED_ATTR 
  46:.\Generated_Source\PSoC5/cyfitter_cfg.c ****     #define CYALIGNED _Pragma("data_alignment=4")
  47:.\Generated_Source\PSoC5/cyfitter_cfg.c ****     #define CY_CFG_UNUSED _Pragma("diag_suppress=Pe177")
  48:.\Generated_Source\PSoC5/cyfitter_cfg.c ****     #define CY_CFG_SECTION _Pragma("location=\".psocinit\"")
  49:.\Generated_Source\PSoC5/cyfitter_cfg.c ****     
  50:.\Generated_Source\PSoC5/cyfitter_cfg.c ****     #define CY_CFG_MEMORY_BARRIER() __DMB()
  51:.\Generated_Source\PSoC5/cyfitter_cfg.c ****     
  52:.\Generated_Source\PSoC5/cyfitter_cfg.c **** #else
  53:.\Generated_Source\PSoC5/cyfitter_cfg.c ****     #error Unsupported toolchain
  54:.\Generated_Source\PSoC5/cyfitter_cfg.c **** #endif
  55:.\Generated_Source\PSoC5/cyfitter_cfg.c **** 
  56:.\Generated_Source\PSoC5/cyfitter_cfg.c **** 
  57:.\Generated_Source\PSoC5/cyfitter_cfg.c **** CY_CFG_UNUSED
  58:.\Generated_Source\PSoC5/cyfitter_cfg.c **** static void CYMEMZERO(void *s, size_t n);
  59:.\Generated_Source\PSoC5/cyfitter_cfg.c **** CY_CFG_UNUSED
  60:.\Generated_Source\PSoC5/cyfitter_cfg.c **** static void CYMEMZERO(void *s, size_t n)
  61:.\Generated_Source\PSoC5/cyfitter_cfg.c **** {
  62:.\Generated_Source\PSoC5/cyfitter_cfg.c **** 	(void)memset(s, 0, n);
  63:.\Generated_Source\PSoC5/cyfitter_cfg.c **** }
  64:.\Generated_Source\PSoC5/cyfitter_cfg.c **** CY_CFG_UNUSED
  65:.\Generated_Source\PSoC5/cyfitter_cfg.c **** static void CYCONFIGCPY(void *dest, const void *src, size_t n);
  66:.\Generated_Source\PSoC5/cyfitter_cfg.c **** CY_CFG_UNUSED
  67:.\Generated_Source\PSoC5/cyfitter_cfg.c **** static void CYCONFIGCPY(void *dest, const void *src, size_t n)
  68:.\Generated_Source\PSoC5/cyfitter_cfg.c **** {
  69:.\Generated_Source\PSoC5/cyfitter_cfg.c **** 	(void)memcpy(dest, src, n);
  70:.\Generated_Source\PSoC5/cyfitter_cfg.c **** }
  71:.\Generated_Source\PSoC5/cyfitter_cfg.c **** CY_CFG_UNUSED
  72:.\Generated_Source\PSoC5/cyfitter_cfg.c **** static void CYCONFIGCPYCODE(void *dest, const void *src, size_t n);
  73:.\Generated_Source\PSoC5/cyfitter_cfg.c **** CY_CFG_UNUSED
  74:.\Generated_Source\PSoC5/cyfitter_cfg.c **** static void CYCONFIGCPYCODE(void *dest, const void *src, size_t n)
  75:.\Generated_Source\PSoC5/cyfitter_cfg.c **** {
  76:.\Generated_Source\PSoC5/cyfitter_cfg.c **** 	(void)memcpy(dest, src, n);
  77:.\Generated_Source\PSoC5/cyfitter_cfg.c **** }
  78:.\Generated_Source\PSoC5/cyfitter_cfg.c **** 
  79:.\Generated_Source\PSoC5/cyfitter_cfg.c **** 
  80:.\Generated_Source\PSoC5/cyfitter_cfg.c **** 
  81:.\Generated_Source\PSoC5/cyfitter_cfg.c **** /* Clock startup error codes                                                   */
  82:.\Generated_Source\PSoC5/cyfitter_cfg.c **** #define CYCLOCKSTART_NO_ERROR    0u
  83:.\Generated_Source\PSoC5/cyfitter_cfg.c **** #define CYCLOCKSTART_XTAL_ERROR  1u
  84:.\Generated_Source\PSoC5/cyfitter_cfg.c **** #define CYCLOCKSTART_32KHZ_ERROR 2u
  85:.\Generated_Source\PSoC5/cyfitter_cfg.c **** #define CYCLOCKSTART_PLL_ERROR   3u
  86:.\Generated_Source\PSoC5/cyfitter_cfg.c **** 
  87:.\Generated_Source\PSoC5/cyfitter_cfg.c **** #ifdef CY_NEED_CYCLOCKSTARTUPERROR
  88:.\Generated_Source\PSoC5/cyfitter_cfg.c **** /*******************************************************************************
  89:.\Generated_Source\PSoC5/cyfitter_cfg.c **** * Function Name: CyClockStartupError
ARM GAS  C:\Users\Digi-Key\AppData\Local\Temp\ccjc2iXH.s 			page 3


  90:.\Generated_Source\PSoC5/cyfitter_cfg.c **** ********************************************************************************
  91:.\Generated_Source\PSoC5/cyfitter_cfg.c **** * Summary:
  92:.\Generated_Source\PSoC5/cyfitter_cfg.c **** *  If an error is encountered during clock configuration (crystal startup error,
  93:.\Generated_Source\PSoC5/cyfitter_cfg.c **** *  PLL lock error, etc.), the system will end up here.  Unless reimplemented by
  94:.\Generated_Source\PSoC5/cyfitter_cfg.c **** *  the customer, this function will stop in an infinite loop.
  95:.\Generated_Source\PSoC5/cyfitter_cfg.c **** *
  96:.\Generated_Source\PSoC5/cyfitter_cfg.c **** * Parameters:
  97:.\Generated_Source\PSoC5/cyfitter_cfg.c **** *   void
  98:.\Generated_Source\PSoC5/cyfitter_cfg.c **** *
  99:.\Generated_Source\PSoC5/cyfitter_cfg.c **** * Return:
 100:.\Generated_Source\PSoC5/cyfitter_cfg.c **** *   void
 101:.\Generated_Source\PSoC5/cyfitter_cfg.c **** *
 102:.\Generated_Source\PSoC5/cyfitter_cfg.c **** *******************************************************************************/
 103:.\Generated_Source\PSoC5/cyfitter_cfg.c **** CY_CFG_UNUSED
 104:.\Generated_Source\PSoC5/cyfitter_cfg.c **** static void CyClockStartupError(uint8 errorCode);
 105:.\Generated_Source\PSoC5/cyfitter_cfg.c **** CY_CFG_UNUSED
 106:.\Generated_Source\PSoC5/cyfitter_cfg.c **** static void CyClockStartupError(uint8 errorCode)
 107:.\Generated_Source\PSoC5/cyfitter_cfg.c **** {
  26              		.loc 1 107 0
  27              		.cfi_startproc
  28              		@ Volatile: function does not return.
  29              		@ args = 0, pretend = 0, frame = 0
  30              		@ frame_needed = 0, uses_anonymous_args = 0
  31              		@ link register save eliminated.
  32              	.LVL0:
  33              	.L2:
  34 0000 FEE7     		b	.L2
  35              		.cfi_endproc
  36              	.LFE3:
  37              		.size	CyClockStartupError, .-CyClockStartupError
  38 0002 00BF     		.section	.text.cfg_write_bytes32,"ax",%progbits
  39              		.align	2
  40              		.thumb
  41              		.thumb_func
  42              		.type	cfg_write_bytes32, %function
  43              	cfg_write_bytes32:
  44              	.LFB4:
 108:.\Generated_Source\PSoC5/cyfitter_cfg.c ****     /* To remove the compiler warning if errorCode not used.                */
 109:.\Generated_Source\PSoC5/cyfitter_cfg.c ****     errorCode = errorCode;
 110:.\Generated_Source\PSoC5/cyfitter_cfg.c **** 
 111:.\Generated_Source\PSoC5/cyfitter_cfg.c ****     /* `#START CyClockStartupError` */
 112:.\Generated_Source\PSoC5/cyfitter_cfg.c **** 
 113:.\Generated_Source\PSoC5/cyfitter_cfg.c ****     /* If we have a clock startup error (bad MHz crystal, PLL lock, etc.),  */
 114:.\Generated_Source\PSoC5/cyfitter_cfg.c ****     /* we will end up here to allow the customer to implement something to  */
 115:.\Generated_Source\PSoC5/cyfitter_cfg.c ****     /* deal with the clock condition.                                       */
 116:.\Generated_Source\PSoC5/cyfitter_cfg.c **** 
 117:.\Generated_Source\PSoC5/cyfitter_cfg.c ****     /* `#END` */
 118:.\Generated_Source\PSoC5/cyfitter_cfg.c **** 
 119:.\Generated_Source\PSoC5/cyfitter_cfg.c ****     /* If nothing else, stop here since the clocks have not started         */
 120:.\Generated_Source\PSoC5/cyfitter_cfg.c ****     /* correctly.                                                           */
 121:.\Generated_Source\PSoC5/cyfitter_cfg.c ****     while(1) {}
 122:.\Generated_Source\PSoC5/cyfitter_cfg.c **** }
 123:.\Generated_Source\PSoC5/cyfitter_cfg.c **** #endif
 124:.\Generated_Source\PSoC5/cyfitter_cfg.c **** 
 125:.\Generated_Source\PSoC5/cyfitter_cfg.c **** #define CY_CFG_BASE_ADDR_COUNT 17u
 126:.\Generated_Source\PSoC5/cyfitter_cfg.c **** CYPACKED typedef struct
 127:.\Generated_Source\PSoC5/cyfitter_cfg.c **** {
ARM GAS  C:\Users\Digi-Key\AppData\Local\Temp\ccjc2iXH.s 			page 4


 128:.\Generated_Source\PSoC5/cyfitter_cfg.c **** 	uint8 offset;
 129:.\Generated_Source\PSoC5/cyfitter_cfg.c **** 	uint8 value;
 130:.\Generated_Source\PSoC5/cyfitter_cfg.c **** } CYPACKED_ATTR cy_cfg_addrvalue_t;
 131:.\Generated_Source\PSoC5/cyfitter_cfg.c **** 
 132:.\Generated_Source\PSoC5/cyfitter_cfg.c **** #define cy_cfg_addr_table ((const uint32 CYFAR *)0x48000000u)
 133:.\Generated_Source\PSoC5/cyfitter_cfg.c **** #define cy_cfg_data_table ((const cy_cfg_addrvalue_t CYFAR *)0x48000044u)
 134:.\Generated_Source\PSoC5/cyfitter_cfg.c **** 
 135:.\Generated_Source\PSoC5/cyfitter_cfg.c **** /* IOPORT_7 Address: CYDEV_PRTDSI_PRT12_BASE Size (bytes): 6 */
 136:.\Generated_Source\PSoC5/cyfitter_cfg.c **** #define BS_IOPORT_7_VAL ((const uint8 CYFAR *)0x48000318u)
 137:.\Generated_Source\PSoC5/cyfitter_cfg.c **** 
 138:.\Generated_Source\PSoC5/cyfitter_cfg.c **** /* IOPINS0_7 Address: CYREG_PRT12_DR Size (bytes): 10 */
 139:.\Generated_Source\PSoC5/cyfitter_cfg.c **** #define BS_IOPINS0_7_VAL ((const uint8 CYFAR *)0x48000320u)
 140:.\Generated_Source\PSoC5/cyfitter_cfg.c **** 
 141:.\Generated_Source\PSoC5/cyfitter_cfg.c **** /* IOPINS0_3 Address: CYREG_PRT3_DM0 Size (bytes): 8 */
 142:.\Generated_Source\PSoC5/cyfitter_cfg.c **** #define BS_IOPINS0_3_VAL ((const uint8 CYFAR *)0x4800032Cu)
 143:.\Generated_Source\PSoC5/cyfitter_cfg.c **** 
 144:.\Generated_Source\PSoC5/cyfitter_cfg.c **** /* CYDEV_CLKDIST_ACFG0_CFG0 Address: CYREG_CLKDIST_ACFG0_CFG0 Size (bytes): 4 */
 145:.\Generated_Source\PSoC5/cyfitter_cfg.c **** #define BS_CYDEV_CLKDIST_ACFG0_CFG0_VAL ((const uint8 CYFAR *)0x48000334u)
 146:.\Generated_Source\PSoC5/cyfitter_cfg.c **** 
 147:.\Generated_Source\PSoC5/cyfitter_cfg.c **** 
 148:.\Generated_Source\PSoC5/cyfitter_cfg.c **** /*******************************************************************************
 149:.\Generated_Source\PSoC5/cyfitter_cfg.c **** * Function Name: cfg_write_bytes32
 150:.\Generated_Source\PSoC5/cyfitter_cfg.c **** ********************************************************************************
 151:.\Generated_Source\PSoC5/cyfitter_cfg.c **** * Summary:
 152:.\Generated_Source\PSoC5/cyfitter_cfg.c **** *  This function is used for setting up the chip configuration areas that
 153:.\Generated_Source\PSoC5/cyfitter_cfg.c **** *  contain relatively sparse data.
 154:.\Generated_Source\PSoC5/cyfitter_cfg.c **** *
 155:.\Generated_Source\PSoC5/cyfitter_cfg.c **** * Parameters:
 156:.\Generated_Source\PSoC5/cyfitter_cfg.c **** *   void
 157:.\Generated_Source\PSoC5/cyfitter_cfg.c **** *
 158:.\Generated_Source\PSoC5/cyfitter_cfg.c **** * Return:
 159:.\Generated_Source\PSoC5/cyfitter_cfg.c **** *   void
 160:.\Generated_Source\PSoC5/cyfitter_cfg.c **** *
 161:.\Generated_Source\PSoC5/cyfitter_cfg.c **** *******************************************************************************/
 162:.\Generated_Source\PSoC5/cyfitter_cfg.c **** static void cfg_write_bytes32(const uint32 addr_table[], const cy_cfg_addrvalue_t data_table[]);
 163:.\Generated_Source\PSoC5/cyfitter_cfg.c **** static void cfg_write_bytes32(const uint32 addr_table[], const cy_cfg_addrvalue_t data_table[])
 164:.\Generated_Source\PSoC5/cyfitter_cfg.c **** {
  45              		.loc 1 164 0
  46              		.cfi_startproc
  47              		@ args = 0, pretend = 0, frame = 0
  48              		@ frame_needed = 0, uses_anonymous_args = 0
  49              		@ link register save eliminated.
  50              	.LVL1:
  51              		.loc 1 164 0
  52 0000 F0B4     		push	{r4, r5, r6, r7}
  53              		.cfi_def_cfa_offset 16
  54              		.cfi_offset 4, -16
  55              		.cfi_offset 5, -12
  56              		.cfi_offset 6, -8
  57              		.cfi_offset 7, -4
  58              	.LVL2:
 165:.\Generated_Source\PSoC5/cyfitter_cfg.c **** 	/* For 32-bit little-endian architectures */
 166:.\Generated_Source\PSoC5/cyfitter_cfg.c **** 	uint32 i, j = 0u;
  59              		.loc 1 166 0
  60 0002 0023     		movs	r3, #0
 167:.\Generated_Source\PSoC5/cyfitter_cfg.c **** 	for (i = 0u; i < CY_CFG_BASE_ADDR_COUNT; i++)
  61              		.loc 1 167 0
ARM GAS  C:\Users\Digi-Key\AppData\Local\Temp\ccjc2iXH.s 			page 5


  62 0004 1F46     		mov	r7, r3
  63 0006 11E0     		b	.L4
  64              	.LVL3:
  65              	.L7:
  66              	.LBB2:
 168:.\Generated_Source\PSoC5/cyfitter_cfg.c **** 	{
 169:.\Generated_Source\PSoC5/cyfitter_cfg.c **** 		uint32 baseAddr = addr_table[i];
  67              		.loc 1 169 0
  68 0008 50F82760 		ldr	r6, [r0, r7, lsl #2]
  69              	.LVL4:
 170:.\Generated_Source\PSoC5/cyfitter_cfg.c **** 		uint8 count = (uint8)baseAddr;
  70              		.loc 1 170 0
  71 000c F2B2     		uxtb	r2, r6
  72              	.LVL5:
 171:.\Generated_Source\PSoC5/cyfitter_cfg.c **** 		baseAddr &= 0xFFFFFF00u;
  73              		.loc 1 171 0
  74 000e 26F0FF06 		bic	r6, r6, #255
  75              	.LVL6:
 172:.\Generated_Source\PSoC5/cyfitter_cfg.c **** 		while (count != 0u)
  76              		.loc 1 172 0
  77 0012 08E0     		b	.L5
  78              	.L6:
 173:.\Generated_Source\PSoC5/cyfitter_cfg.c **** 		{
 174:.\Generated_Source\PSoC5/cyfitter_cfg.c **** 			CY_SET_XTND_REG8((void CYFAR *)(baseAddr + data_table[j].offset), data_table[j].value);
  79              		.loc 1 174 0
  80 0014 01EB4305 		add	r5, r1, r3, lsl #1
  81 0018 11F81340 		ldrb	r4, [r1, r3, lsl #1]	@ zero_extendqisi2
  82 001c 6D78     		ldrb	r5, [r5, #1]	@ zero_extendqisi2
  83 001e A555     		strb	r5, [r4, r6]
 175:.\Generated_Source\PSoC5/cyfitter_cfg.c **** 			j++;
  84              		.loc 1 175 0
  85 0020 0133     		adds	r3, r3, #1
  86              	.LVL7:
 176:.\Generated_Source\PSoC5/cyfitter_cfg.c **** 			count--;
  87              		.loc 1 176 0
  88 0022 013A     		subs	r2, r2, #1
  89              	.LVL8:
  90 0024 D2B2     		uxtb	r2, r2
  91              	.LVL9:
  92              	.L5:
 172:.\Generated_Source\PSoC5/cyfitter_cfg.c **** 		while (count != 0u)
  93              		.loc 1 172 0 discriminator 1
  94 0026 002A     		cmp	r2, #0
  95 0028 F4D1     		bne	.L6
  96              	.LBE2:
 167:.\Generated_Source\PSoC5/cyfitter_cfg.c **** 	for (i = 0u; i < CY_CFG_BASE_ADDR_COUNT; i++)
  97              		.loc 1 167 0
  98 002a 0137     		adds	r7, r7, #1
  99              	.LVL10:
 100              	.L4:
 167:.\Generated_Source\PSoC5/cyfitter_cfg.c **** 	for (i = 0u; i < CY_CFG_BASE_ADDR_COUNT; i++)
 101              		.loc 1 167 0 is_stmt 0 discriminator 1
 102 002c 102F     		cmp	r7, #16
 103 002e EBD9     		bls	.L7
 177:.\Generated_Source\PSoC5/cyfitter_cfg.c **** 		}
 178:.\Generated_Source\PSoC5/cyfitter_cfg.c **** 	}
 179:.\Generated_Source\PSoC5/cyfitter_cfg.c **** }
ARM GAS  C:\Users\Digi-Key\AppData\Local\Temp\ccjc2iXH.s 			page 6


 104              		.loc 1 179 0 is_stmt 1
 105 0030 F0BC     		pop	{r4, r5, r6, r7}
 106              	.LVL11:
 107 0032 7047     		bx	lr
 108              		.cfi_endproc
 109              	.LFE4:
 110              		.size	cfg_write_bytes32, .-cfg_write_bytes32
 111              		.section	.text.AnalogSetDefault,"ax",%progbits
 112              		.align	2
 113              		.thumb
 114              		.thumb_func
 115              		.type	AnalogSetDefault, %function
 116              	AnalogSetDefault:
 117              	.LFB6:
 180:.\Generated_Source\PSoC5/cyfitter_cfg.c **** 
 181:.\Generated_Source\PSoC5/cyfitter_cfg.c **** /*******************************************************************************
 182:.\Generated_Source\PSoC5/cyfitter_cfg.c **** * Function Name: ClockSetup
 183:.\Generated_Source\PSoC5/cyfitter_cfg.c **** ********************************************************************************
 184:.\Generated_Source\PSoC5/cyfitter_cfg.c **** *
 185:.\Generated_Source\PSoC5/cyfitter_cfg.c **** * Summary:
 186:.\Generated_Source\PSoC5/cyfitter_cfg.c **** *  Performs the initialization of all of the clocks in the device based on the
 187:.\Generated_Source\PSoC5/cyfitter_cfg.c **** *  settings in the Clock tab of the DWR.  This includes enabling the requested
 188:.\Generated_Source\PSoC5/cyfitter_cfg.c **** *  clocks and setting the necessary dividers to produce the desired frequency. 
 189:.\Generated_Source\PSoC5/cyfitter_cfg.c **** *
 190:.\Generated_Source\PSoC5/cyfitter_cfg.c **** * Parameters:
 191:.\Generated_Source\PSoC5/cyfitter_cfg.c **** *  void
 192:.\Generated_Source\PSoC5/cyfitter_cfg.c **** *
 193:.\Generated_Source\PSoC5/cyfitter_cfg.c **** * Return:
 194:.\Generated_Source\PSoC5/cyfitter_cfg.c **** *  void
 195:.\Generated_Source\PSoC5/cyfitter_cfg.c **** *
 196:.\Generated_Source\PSoC5/cyfitter_cfg.c **** *******************************************************************************/
 197:.\Generated_Source\PSoC5/cyfitter_cfg.c **** static void ClockSetup(void);
 198:.\Generated_Source\PSoC5/cyfitter_cfg.c **** static void ClockSetup(void)
 199:.\Generated_Source\PSoC5/cyfitter_cfg.c **** {
 200:.\Generated_Source\PSoC5/cyfitter_cfg.c **** 	uint32 timeout;
 201:.\Generated_Source\PSoC5/cyfitter_cfg.c **** 	uint8 pllLock;
 202:.\Generated_Source\PSoC5/cyfitter_cfg.c **** 
 203:.\Generated_Source\PSoC5/cyfitter_cfg.c **** 
 204:.\Generated_Source\PSoC5/cyfitter_cfg.c **** 	/* Configure Digital Clocks based on settings from Clock DWR */
 205:.\Generated_Source\PSoC5/cyfitter_cfg.c **** 	CY_SET_XTND_REG16((void CYFAR *)(CYREG_CLKDIST_DCFG0_CFG0), 0x0000u);
 206:.\Generated_Source\PSoC5/cyfitter_cfg.c **** 	CY_SET_XTND_REG8((void CYFAR *)(CYREG_CLKDIST_DCFG0_CFG0 + 0x2u), 0x50u);
 207:.\Generated_Source\PSoC5/cyfitter_cfg.c **** 	CY_SET_XTND_REG16((void CYFAR *)(CYREG_CLKDIST_DCFG1_CFG0), 0x0019u);
 208:.\Generated_Source\PSoC5/cyfitter_cfg.c **** 	CY_SET_XTND_REG8((void CYFAR *)(CYREG_CLKDIST_DCFG1_CFG0 + 0x2u), 0x18u);
 209:.\Generated_Source\PSoC5/cyfitter_cfg.c **** 
 210:.\Generated_Source\PSoC5/cyfitter_cfg.c **** 	/* Configure Analog Clocks based on settings from Clock DWR */
 211:.\Generated_Source\PSoC5/cyfitter_cfg.c **** 	CYCONFIGCPY((void CYFAR *)(CYREG_CLKDIST_ACFG0_CFG0), (const void CYFAR *)(BS_CYDEV_CLKDIST_ACFG0_
 212:.\Generated_Source\PSoC5/cyfitter_cfg.c **** 
 213:.\Generated_Source\PSoC5/cyfitter_cfg.c **** 	/* Configure ILO based on settings from Clock DWR */
 214:.\Generated_Source\PSoC5/cyfitter_cfg.c **** 	CY_SET_XTND_REG8((void CYFAR *)(CYREG_SLOWCLK_ILO_CR0), 0x02u);
 215:.\Generated_Source\PSoC5/cyfitter_cfg.c **** 	CY_SET_XTND_REG8((void CYFAR *)(CYREG_CLKDIST_CR), 0x08u);
 216:.\Generated_Source\PSoC5/cyfitter_cfg.c **** 
 217:.\Generated_Source\PSoC5/cyfitter_cfg.c **** 	/* Configure IMO based on settings from Clock DWR */
 218:.\Generated_Source\PSoC5/cyfitter_cfg.c **** 	CY_SET_XTND_REG8((void CYFAR *)(CYREG_FASTCLK_IMO_CR), 0x03u);
 219:.\Generated_Source\PSoC5/cyfitter_cfg.c **** 	CY_SET_XTND_REG8((void CYFAR *)(CYREG_IMO_TR1), (CY_GET_XTND_REG8((void CYFAR *)CYREG_FLSHID_CUST_
 220:.\Generated_Source\PSoC5/cyfitter_cfg.c **** 
 221:.\Generated_Source\PSoC5/cyfitter_cfg.c **** 	/* Configure PLL based on settings from Clock DWR */
 222:.\Generated_Source\PSoC5/cyfitter_cfg.c **** 	CY_SET_XTND_REG16((void CYFAR *)(CYREG_FASTCLK_PLL_P), 0x0008u);
ARM GAS  C:\Users\Digi-Key\AppData\Local\Temp\ccjc2iXH.s 			page 7


 223:.\Generated_Source\PSoC5/cyfitter_cfg.c **** 	CY_SET_XTND_REG16((void CYFAR *)(CYREG_FASTCLK_PLL_CFG0), 0x1251u);
 224:.\Generated_Source\PSoC5/cyfitter_cfg.c **** 	/* Wait up to 250us for the PLL to lock */
 225:.\Generated_Source\PSoC5/cyfitter_cfg.c **** 	pllLock = 0u;
 226:.\Generated_Source\PSoC5/cyfitter_cfg.c **** 	for (timeout = 250u / 10u; (timeout > 0u) && (pllLock != 0x03u); timeout--)
 227:.\Generated_Source\PSoC5/cyfitter_cfg.c **** 	{ 
 228:.\Generated_Source\PSoC5/cyfitter_cfg.c **** 		pllLock = 0x03u & ((uint8)((uint8)pllLock << 1) | ((CY_GET_XTND_REG8((void CYFAR *)CYREG_FASTCLK_
 229:.\Generated_Source\PSoC5/cyfitter_cfg.c **** 		CyDelayCycles(10u * 48u); /* Delay 10us based on 48MHz clock */
 230:.\Generated_Source\PSoC5/cyfitter_cfg.c **** 	}
 231:.\Generated_Source\PSoC5/cyfitter_cfg.c **** 	/* If we ran out of time the PLL didn't lock so go to the error function */
 232:.\Generated_Source\PSoC5/cyfitter_cfg.c **** 	if (timeout == 0u)
 233:.\Generated_Source\PSoC5/cyfitter_cfg.c **** 	{
 234:.\Generated_Source\PSoC5/cyfitter_cfg.c **** 		CyClockStartupError(CYCLOCKSTART_PLL_ERROR);
 235:.\Generated_Source\PSoC5/cyfitter_cfg.c **** 	}
 236:.\Generated_Source\PSoC5/cyfitter_cfg.c **** 
 237:.\Generated_Source\PSoC5/cyfitter_cfg.c **** 	/* Configure Bus/Master Clock based on settings from Clock DWR */
 238:.\Generated_Source\PSoC5/cyfitter_cfg.c **** 	CY_SET_XTND_REG16((void CYFAR *)(CYREG_CLKDIST_MSTR0), 0x0100u);
 239:.\Generated_Source\PSoC5/cyfitter_cfg.c **** 	CY_SET_XTND_REG8((void CYFAR *)(CYREG_CLKDIST_MSTR0), 0x07u);
 240:.\Generated_Source\PSoC5/cyfitter_cfg.c **** 	CY_SET_XTND_REG8((void CYFAR *)(CYREG_CLKDIST_BCFG0), 0x00u);
 241:.\Generated_Source\PSoC5/cyfitter_cfg.c **** 	CY_SET_XTND_REG8((void CYFAR *)(CYREG_CLKDIST_BCFG2), 0x48u);
 242:.\Generated_Source\PSoC5/cyfitter_cfg.c **** 	CY_SET_XTND_REG8((void CYFAR *)(CYREG_CLKDIST_MSTR0), 0x00u);
 243:.\Generated_Source\PSoC5/cyfitter_cfg.c **** 	CY_SET_XTND_REG8((void CYFAR *)(CYREG_CLKDIST_LD), 0x02u);
 244:.\Generated_Source\PSoC5/cyfitter_cfg.c **** 	CY_SET_XTND_REG8((void CYFAR *)(CYREG_CLKDIST_DLY1), 0x04u);
 245:.\Generated_Source\PSoC5/cyfitter_cfg.c **** 
 246:.\Generated_Source\PSoC5/cyfitter_cfg.c **** 	CY_SET_XTND_REG8((void CYFAR *)(CYREG_PM_ACT_CFG2), ((CY_GET_XTND_REG8((void CYFAR *)CYREG_PM_ACT_
 247:.\Generated_Source\PSoC5/cyfitter_cfg.c **** 	CY_SET_XTND_REG8((void CYFAR *)(CYREG_PM_ACT_CFG1), ((CY_GET_XTND_REG8((void CYFAR *)CYREG_PM_ACT_
 248:.\Generated_Source\PSoC5/cyfitter_cfg.c **** 	CY_SET_XTND_REG8((void CYFAR *)(CYREG_PM_ACT_CFG0), ((CY_GET_XTND_REG8((void CYFAR *)CYREG_PM_ACT_
 249:.\Generated_Source\PSoC5/cyfitter_cfg.c **** }
 250:.\Generated_Source\PSoC5/cyfitter_cfg.c **** 
 251:.\Generated_Source\PSoC5/cyfitter_cfg.c **** 
 252:.\Generated_Source\PSoC5/cyfitter_cfg.c **** /* Analog API Functions */
 253:.\Generated_Source\PSoC5/cyfitter_cfg.c **** 
 254:.\Generated_Source\PSoC5/cyfitter_cfg.c **** 
 255:.\Generated_Source\PSoC5/cyfitter_cfg.c **** /*******************************************************************************
 256:.\Generated_Source\PSoC5/cyfitter_cfg.c **** * Function Name: AnalogSetDefault
 257:.\Generated_Source\PSoC5/cyfitter_cfg.c **** ********************************************************************************
 258:.\Generated_Source\PSoC5/cyfitter_cfg.c **** *
 259:.\Generated_Source\PSoC5/cyfitter_cfg.c **** * Summary:
 260:.\Generated_Source\PSoC5/cyfitter_cfg.c **** *  Sets up the analog portions of the chip to default values based on chip
 261:.\Generated_Source\PSoC5/cyfitter_cfg.c **** *  configuration options from the project.
 262:.\Generated_Source\PSoC5/cyfitter_cfg.c **** *
 263:.\Generated_Source\PSoC5/cyfitter_cfg.c **** * Parameters:
 264:.\Generated_Source\PSoC5/cyfitter_cfg.c **** *  void
 265:.\Generated_Source\PSoC5/cyfitter_cfg.c **** *
 266:.\Generated_Source\PSoC5/cyfitter_cfg.c **** * Return:
 267:.\Generated_Source\PSoC5/cyfitter_cfg.c **** *  void
 268:.\Generated_Source\PSoC5/cyfitter_cfg.c **** *
 269:.\Generated_Source\PSoC5/cyfitter_cfg.c **** *******************************************************************************/
 270:.\Generated_Source\PSoC5/cyfitter_cfg.c **** static void AnalogSetDefault(void);
 271:.\Generated_Source\PSoC5/cyfitter_cfg.c **** static void AnalogSetDefault(void)
 272:.\Generated_Source\PSoC5/cyfitter_cfg.c **** {
 118              		.loc 1 272 0
 119              		.cfi_startproc
 120              		@ args = 0, pretend = 0, frame = 0
 121              		@ frame_needed = 0, uses_anonymous_args = 0
 122              		@ link register save eliminated.
 273:.\Generated_Source\PSoC5/cyfitter_cfg.c **** 	uint8 bg_xover_inl_trim = CY_GET_XTND_REG8((void CYFAR *)(CYREG_FLSHID_MFG_CFG_BG_XOVER_INL_TRIM +
 123              		.loc 1 273 0
ARM GAS  C:\Users\Digi-Key\AppData\Local\Temp\ccjc2iXH.s 			page 8


 124 0000 0C4B     		ldr	r3, .L9
 125 0002 1B78     		ldrb	r3, [r3]	@ zero_extendqisi2
 126 0004 DBB2     		uxtb	r3, r3
 127              	.LVL12:
 274:.\Generated_Source\PSoC5/cyfitter_cfg.c **** 	CY_SET_XTND_REG8((void CYFAR *)(CYREG_BG_DFT0), (bg_xover_inl_trim & 0x07u));
 128              		.loc 1 274 0
 129 0006 03F00701 		and	r1, r3, #7
 130 000a 0B4A     		ldr	r2, .L9+4
 131 000c 1170     		strb	r1, [r2]
 275:.\Generated_Source\PSoC5/cyfitter_cfg.c **** 	CY_SET_XTND_REG8((void CYFAR *)(CYREG_BG_DFT1), ((bg_xover_inl_trim >> 4) & 0x0Fu));
 132              		.loc 1 275 0
 133 000e 1B09     		lsrs	r3, r3, #4
 134              	.LVL13:
 135 0010 0132     		adds	r2, r2, #1
 136 0012 1370     		strb	r3, [r2]
 276:.\Generated_Source\PSoC5/cyfitter_cfg.c **** 	CY_SET_XTND_REG8((void CYFAR *)CYREG_PRT3_AG, 0x30u);
 137              		.loc 1 276 0
 138 0014 3022     		movs	r2, #48
 139 0016 094B     		ldr	r3, .L9+8
 140 0018 1A70     		strb	r2, [r3]
 277:.\Generated_Source\PSoC5/cyfitter_cfg.c **** 	CY_SET_XTND_REG8((void CYFAR *)CYREG_DAC3_SW0, 0x10u);
 141              		.loc 1 277 0
 142 001a 1022     		movs	r2, #16
 143 001c 03F65B13 		addw	r3, r3, #2395
 144 0020 1A70     		strb	r2, [r3]
 278:.\Generated_Source\PSoC5/cyfitter_cfg.c **** 	CY_SET_XTND_REG8((void CYFAR *)CYREG_DSM0_SW0, 0x20u);
 145              		.loc 1 278 0
 146 0022 2023     		movs	r3, #32
 147 0024 064A     		ldr	r2, .L9+12
 148 0026 1370     		strb	r3, [r2]
 279:.\Generated_Source\PSoC5/cyfitter_cfg.c **** 	CY_SET_XTND_REG8((void CYFAR *)CYREG_BUS_SW0, 0x20u);
 149              		.loc 1 279 0
 150 0028 5832     		adds	r2, r2, #88
 151 002a 1370     		strb	r3, [r2]
 280:.\Generated_Source\PSoC5/cyfitter_cfg.c **** 	CY_SET_XTND_REG8((void CYFAR *)CYREG_PUMP_CR0, 0x44u);
 152              		.loc 1 280 0
 153 002c 4422     		movs	r2, #68
 154 002e 054B     		ldr	r3, .L9+16
 155 0030 1A70     		strb	r2, [r3]
 156 0032 7047     		bx	lr
 157              	.L10:
 158              		.align	2
 159              	.L9:
 160 0034 CF010049 		.word	1224737231
 161 0038 6E580040 		.word	1073764462
 162 003c 3D510040 		.word	1073762621
 163 0040 005B0040 		.word	1073765120
 164 0044 76580040 		.word	1073764470
 165              		.cfi_endproc
 166              	.LFE6:
 167              		.size	AnalogSetDefault, .-AnalogSetDefault
 168              		.section	.text.CYMEMZERO,"ax",%progbits
 169              		.align	2
 170              		.thumb
 171              		.thumb_func
 172              		.type	CYMEMZERO, %function
 173              	CYMEMZERO:
ARM GAS  C:\Users\Digi-Key\AppData\Local\Temp\ccjc2iXH.s 			page 9


 174              	.LFB0:
  61:.\Generated_Source\PSoC5/cyfitter_cfg.c **** {
 175              		.loc 1 61 0
 176              		.cfi_startproc
 177              		@ args = 0, pretend = 0, frame = 0
 178              		@ frame_needed = 0, uses_anonymous_args = 0
 179              	.LVL14:
 180 0000 08B5     		push	{r3, lr}
 181              		.cfi_def_cfa_offset 8
 182              		.cfi_offset 3, -8
 183              		.cfi_offset 14, -4
 184 0002 0A46     		mov	r2, r1
  62:.\Generated_Source\PSoC5/cyfitter_cfg.c **** 	(void)memset(s, 0, n);
 185              		.loc 1 62 0
 186 0004 0021     		movs	r1, #0
 187              	.LVL15:
 188 0006 FFF7FEFF 		bl	memset
 189              	.LVL16:
 190 000a 08BD     		pop	{r3, pc}
 191              		.cfi_endproc
 192              	.LFE0:
 193              		.size	CYMEMZERO, .-CYMEMZERO
 194              		.section	.text.CYCONFIGCPY,"ax",%progbits
 195              		.align	2
 196              		.thumb
 197              		.thumb_func
 198              		.type	CYCONFIGCPY, %function
 199              	CYCONFIGCPY:
 200              	.LFB1:
  68:.\Generated_Source\PSoC5/cyfitter_cfg.c **** {
 201              		.loc 1 68 0
 202              		.cfi_startproc
 203              		@ args = 0, pretend = 0, frame = 0
 204              		@ frame_needed = 0, uses_anonymous_args = 0
 205              	.LVL17:
 206 0000 08B5     		push	{r3, lr}
 207              		.cfi_def_cfa_offset 8
 208              		.cfi_offset 3, -8
 209              		.cfi_offset 14, -4
  69:.\Generated_Source\PSoC5/cyfitter_cfg.c **** 	(void)memcpy(dest, src, n);
 210              		.loc 1 69 0
 211 0002 FFF7FEFF 		bl	memcpy
 212              	.LVL18:
 213 0006 08BD     		pop	{r3, pc}
 214              		.cfi_endproc
 215              	.LFE1:
 216              		.size	CYCONFIGCPY, .-CYCONFIGCPY
 217              		.section	.text.ClockSetup,"ax",%progbits
 218              		.align	2
 219              		.thumb
 220              		.thumb_func
 221              		.type	ClockSetup, %function
 222              	ClockSetup:
 223              	.LFB5:
 199:.\Generated_Source\PSoC5/cyfitter_cfg.c **** {
 224              		.loc 1 199 0
 225              		.cfi_startproc
ARM GAS  C:\Users\Digi-Key\AppData\Local\Temp\ccjc2iXH.s 			page 10


 226              		@ args = 0, pretend = 0, frame = 0
 227              		@ frame_needed = 0, uses_anonymous_args = 0
 228 0000 F8B5     		push	{r3, r4, r5, r6, r7, lr}
 229              		.cfi_def_cfa_offset 24
 230              		.cfi_offset 3, -24
 231              		.cfi_offset 4, -20
 232              		.cfi_offset 5, -16
 233              		.cfi_offset 6, -12
 234              		.cfi_offset 7, -8
 235              		.cfi_offset 14, -4
 205:.\Generated_Source\PSoC5/cyfitter_cfg.c **** 	CY_SET_XTND_REG16((void CYFAR *)(CYREG_CLKDIST_DCFG0_CFG0), 0x0000u);
 236              		.loc 1 205 0
 237 0002 0025     		movs	r5, #0
 238 0004 304B     		ldr	r3, .L18
 239 0006 1D80     		strh	r5, [r3]	@ movhi
 206:.\Generated_Source\PSoC5/cyfitter_cfg.c **** 	CY_SET_XTND_REG8((void CYFAR *)(CYREG_CLKDIST_DCFG0_CFG0 + 0x2u), 0x50u);
 240              		.loc 1 206 0
 241 0008 5022     		movs	r2, #80
 242 000a 0233     		adds	r3, r3, #2
 243 000c 1A70     		strb	r2, [r3]
 207:.\Generated_Source\PSoC5/cyfitter_cfg.c **** 	CY_SET_XTND_REG16((void CYFAR *)(CYREG_CLKDIST_DCFG1_CFG0), 0x0019u);
 244              		.loc 1 207 0
 245 000e 1924     		movs	r4, #25
 246 0010 0233     		adds	r3, r3, #2
 247 0012 1C80     		strh	r4, [r3]	@ movhi
 208:.\Generated_Source\PSoC5/cyfitter_cfg.c **** 	CY_SET_XTND_REG8((void CYFAR *)(CYREG_CLKDIST_DCFG1_CFG0 + 0x2u), 0x18u);
 248              		.loc 1 208 0
 249 0014 1822     		movs	r2, #24
 250 0016 0233     		adds	r3, r3, #2
 251 0018 1A70     		strb	r2, [r3]
 211:.\Generated_Source\PSoC5/cyfitter_cfg.c **** 	CYCONFIGCPY((void CYFAR *)(CYREG_CLKDIST_ACFG0_CFG0), (const void CYFAR *)(BS_CYDEV_CLKDIST_ACFG0_
 252              		.loc 1 211 0
 253 001a 2C48     		ldr	r0, .L18+4
 254 001c 2C49     		ldr	r1, .L18+8
 255 001e 0422     		movs	r2, #4
 256 0020 FFF7FEFF 		bl	CYCONFIGCPY
 257              	.LVL19:
 214:.\Generated_Source\PSoC5/cyfitter_cfg.c **** 	CY_SET_XTND_REG8((void CYFAR *)(CYREG_SLOWCLK_ILO_CR0), 0x02u);
 258              		.loc 1 214 0
 259 0024 0222     		movs	r2, #2
 260 0026 2B4B     		ldr	r3, .L18+12
 261 0028 1A70     		strb	r2, [r3]
 215:.\Generated_Source\PSoC5/cyfitter_cfg.c **** 	CY_SET_XTND_REG8((void CYFAR *)(CYREG_CLKDIST_CR), 0x08u);
 262              		.loc 1 215 0
 263 002a 0823     		movs	r3, #8
 264 002c 4FF04022 		mov	r2, #1073758208
 265 0030 1370     		strb	r3, [r2]
 218:.\Generated_Source\PSoC5/cyfitter_cfg.c **** 	CY_SET_XTND_REG8((void CYFAR *)(CYREG_FASTCLK_IMO_CR), 0x03u);
 266              		.loc 1 218 0
 267 0032 0321     		movs	r1, #3
 268 0034 02F50072 		add	r2, r2, #512
 269 0038 1170     		strb	r1, [r2]
 219:.\Generated_Source\PSoC5/cyfitter_cfg.c **** 	CY_SET_XTND_REG8((void CYFAR *)(CYREG_IMO_TR1), (CY_GET_XTND_REG8((void CYFAR *)CYREG_FLSHID_CUST_
 270              		.loc 1 219 0
 271 003a 274A     		ldr	r2, .L18+16
 272 003c 1178     		ldrb	r1, [r2]	@ zero_extendqisi2
 273 003e C9B2     		uxtb	r1, r1
ARM GAS  C:\Users\Digi-Key\AppData\Local\Temp\ccjc2iXH.s 			page 11


 274 0040 264A     		ldr	r2, .L18+20
 275 0042 1170     		strb	r1, [r2]
 222:.\Generated_Source\PSoC5/cyfitter_cfg.c **** 	CY_SET_XTND_REG16((void CYFAR *)(CYREG_FASTCLK_PLL_P), 0x0008u);
 276              		.loc 1 222 0
 277 0044 A2F27F42 		subw	r2, r2, #1151
 278 0048 1380     		strh	r3, [r2]	@ movhi
 223:.\Generated_Source\PSoC5/cyfitter_cfg.c **** 	CY_SET_XTND_REG16((void CYFAR *)(CYREG_FASTCLK_PLL_CFG0), 0x1251u);
 279              		.loc 1 223 0
 280 004a 41F25122 		movw	r2, #4689
 281 004e 244B     		ldr	r3, .L18+24
 282 0050 1A80     		strh	r2, [r3]	@ movhi
 283              	.LVL20:
 228:.\Generated_Source\PSoC5/cyfitter_cfg.c **** 		pllLock = 0x03u & ((uint8)((uint8)pllLock << 1) | ((CY_GET_XTND_REG8((void CYFAR *)CYREG_FASTCLK_
 284              		.loc 1 228 0
 285 0052 244F     		ldr	r7, .L18+28
 229:.\Generated_Source\PSoC5/cyfitter_cfg.c **** 		CyDelayCycles(10u * 48u); /* Delay 10us based on 48MHz clock */
 286              		.loc 1 229 0
 287 0054 4FF4F076 		mov	r6, #480
 226:.\Generated_Source\PSoC5/cyfitter_cfg.c **** 	for (timeout = 250u / 10u; (timeout > 0u) && (pllLock != 0x03u); timeout--)
 288              		.loc 1 226 0
 289 0058 0AE0     		b	.L14
 290              	.LVL21:
 291              	.L16:
 228:.\Generated_Source\PSoC5/cyfitter_cfg.c **** 		pllLock = 0x03u & ((uint8)((uint8)pllLock << 1) | ((CY_GET_XTND_REG8((void CYFAR *)CYREG_FASTCLK_
 292              		.loc 1 228 0 discriminator 1
 293 005a 3B78     		ldrb	r3, [r7]	@ zero_extendqisi2
 294 005c 03F00103 		and	r3, r3, #1
 295 0060 43EA4505 		orr	r5, r3, r5, lsl #1
 296              	.LVL22:
 297 0064 05F00305 		and	r5, r5, #3
 298              	.LVL23:
 229:.\Generated_Source\PSoC5/cyfitter_cfg.c **** 		CyDelayCycles(10u * 48u); /* Delay 10us based on 48MHz clock */
 299              		.loc 1 229 0 discriminator 1
 300 0068 3046     		mov	r0, r6
 301 006a FFF7FEFF 		bl	CyDelayCycles
 302              	.LVL24:
 226:.\Generated_Source\PSoC5/cyfitter_cfg.c **** 	for (timeout = 250u / 10u; (timeout > 0u) && (pllLock != 0x03u); timeout--)
 303              		.loc 1 226 0 discriminator 1
 304 006e 013C     		subs	r4, r4, #1
 305              	.LVL25:
 306              	.L14:
 307 0070 0CB1     		cbz	r4, .L15
 226:.\Generated_Source\PSoC5/cyfitter_cfg.c **** 	for (timeout = 250u / 10u; (timeout > 0u) && (pllLock != 0x03u); timeout--)
 308              		.loc 1 226 0 is_stmt 0 discriminator 2
 309 0072 032D     		cmp	r5, #3
 310 0074 F1D1     		bne	.L16
 311              	.L15:
 232:.\Generated_Source\PSoC5/cyfitter_cfg.c **** 	if (timeout == 0u)
 312              		.loc 1 232 0 is_stmt 1
 313 0076 14B9     		cbnz	r4, .L17
 234:.\Generated_Source\PSoC5/cyfitter_cfg.c **** 		CyClockStartupError(CYCLOCKSTART_PLL_ERROR);
 314              		.loc 1 234 0
 315 0078 0320     		movs	r0, #3
 316 007a FFF7FEFF 		bl	CyClockStartupError
 317              	.LVL26:
 318              	.L17:
 238:.\Generated_Source\PSoC5/cyfitter_cfg.c **** 	CY_SET_XTND_REG16((void CYFAR *)(CYREG_CLKDIST_MSTR0), 0x0100u);
ARM GAS  C:\Users\Digi-Key\AppData\Local\Temp\ccjc2iXH.s 			page 12


 319              		.loc 1 238 0
 320 007e 1A4B     		ldr	r3, .L18+32
 321 0080 4FF48072 		mov	r2, #256
 322 0084 1A80     		strh	r2, [r3]	@ movhi
 239:.\Generated_Source\PSoC5/cyfitter_cfg.c **** 	CY_SET_XTND_REG8((void CYFAR *)(CYREG_CLKDIST_MSTR0), 0x07u);
 323              		.loc 1 239 0
 324 0086 0722     		movs	r2, #7
 325 0088 1A70     		strb	r2, [r3]
 240:.\Generated_Source\PSoC5/cyfitter_cfg.c **** 	CY_SET_XTND_REG8((void CYFAR *)(CYREG_CLKDIST_BCFG0), 0x00u);
 326              		.loc 1 240 0
 327 008a 0022     		movs	r2, #0
 328 008c 1749     		ldr	r1, .L18+36
 329 008e 0A70     		strb	r2, [r1]
 241:.\Generated_Source\PSoC5/cyfitter_cfg.c **** 	CY_SET_XTND_REG8((void CYFAR *)(CYREG_CLKDIST_BCFG2), 0x48u);
 330              		.loc 1 241 0
 331 0090 4820     		movs	r0, #72
 332 0092 0231     		adds	r1, r1, #2
 333 0094 0870     		strb	r0, [r1]
 242:.\Generated_Source\PSoC5/cyfitter_cfg.c **** 	CY_SET_XTND_REG8((void CYFAR *)(CYREG_CLKDIST_MSTR0), 0x00u);
 334              		.loc 1 242 0
 335 0096 1A70     		strb	r2, [r3]
 243:.\Generated_Source\PSoC5/cyfitter_cfg.c **** 	CY_SET_XTND_REG8((void CYFAR *)(CYREG_CLKDIST_LD), 0x02u);
 336              		.loc 1 243 0
 337 0098 0222     		movs	r2, #2
 338 009a 033B     		subs	r3, r3, #3
 339 009c 1A70     		strb	r2, [r3]
 244:.\Generated_Source\PSoC5/cyfitter_cfg.c **** 	CY_SET_XTND_REG8((void CYFAR *)(CYREG_CLKDIST_DLY1), 0x04u);
 340              		.loc 1 244 0
 341 009e 0422     		movs	r2, #4
 342 00a0 0A33     		adds	r3, r3, #10
 343 00a2 1A70     		strb	r2, [r3]
 246:.\Generated_Source\PSoC5/cyfitter_cfg.c **** 	CY_SET_XTND_REG8((void CYFAR *)(CYREG_PM_ACT_CFG2), ((CY_GET_XTND_REG8((void CYFAR *)CYREG_PM_ACT_
 344              		.loc 1 246 0
 345 00a4 03F29733 		addw	r3, r3, #919
 346 00a8 1A78     		ldrb	r2, [r3]	@ zero_extendqisi2
 347 00aa 42F00302 		orr	r2, r2, #3
 348 00ae 1A70     		strb	r2, [r3]
 247:.\Generated_Source\PSoC5/cyfitter_cfg.c **** 	CY_SET_XTND_REG8((void CYFAR *)(CYREG_PM_ACT_CFG1), ((CY_GET_XTND_REG8((void CYFAR *)CYREG_PM_ACT_
 349              		.loc 1 247 0
 350 00b0 013B     		subs	r3, r3, #1
 351 00b2 1A78     		ldrb	r2, [r3]	@ zero_extendqisi2
 352 00b4 42F00102 		orr	r2, r2, #1
 353 00b8 1A70     		strb	r2, [r3]
 248:.\Generated_Source\PSoC5/cyfitter_cfg.c **** 	CY_SET_XTND_REG8((void CYFAR *)(CYREG_PM_ACT_CFG0), ((CY_GET_XTND_REG8((void CYFAR *)CYREG_PM_ACT_
 354              		.loc 1 248 0
 355 00ba 013B     		subs	r3, r3, #1
 356 00bc 1A78     		ldrb	r2, [r3]	@ zero_extendqisi2
 357 00be 42F08002 		orr	r2, r2, #128
 358 00c2 1A70     		strb	r2, [r3]
 359 00c4 F8BD     		pop	{r3, r4, r5, r6, r7, pc}
 360              	.LVL27:
 361              	.L19:
 362 00c6 00BF     		.align	2
 363              	.L18:
 364 00c8 80400040 		.word	1073758336
 365 00cc 00410040 		.word	1073758464
 366 00d0 34030048 		.word	1207960372
ARM GAS  C:\Users\Digi-Key\AppData\Local\Temp\ccjc2iXH.s 			page 13


 367 00d4 00430040 		.word	1073758976
 368 00d8 08010049 		.word	1224737032
 369 00dc A1460040 		.word	1073759905
 370 00e0 20420040 		.word	1073758752
 371 00e4 25420040 		.word	1073758757
 372 00e8 04400040 		.word	1073758212
 373 00ec 06400040 		.word	1073758214
 374              		.cfi_endproc
 375              	.LFE5:
 376              		.size	ClockSetup, .-ClockSetup
 377              		.section	.text.SetAnalogRoutingPumps,"ax",%progbits
 378              		.align	2
 379              		.global	SetAnalogRoutingPumps
 380              		.thumb
 381              		.thumb_func
 382              		.type	SetAnalogRoutingPumps, %function
 383              	SetAnalogRoutingPumps:
 384              	.LFB7:
 281:.\Generated_Source\PSoC5/cyfitter_cfg.c **** }
 282:.\Generated_Source\PSoC5/cyfitter_cfg.c **** 
 283:.\Generated_Source\PSoC5/cyfitter_cfg.c **** 
 284:.\Generated_Source\PSoC5/cyfitter_cfg.c **** /*******************************************************************************
 285:.\Generated_Source\PSoC5/cyfitter_cfg.c **** * Function Name: SetAnalogRoutingPumps
 286:.\Generated_Source\PSoC5/cyfitter_cfg.c **** ********************************************************************************
 287:.\Generated_Source\PSoC5/cyfitter_cfg.c **** *
 288:.\Generated_Source\PSoC5/cyfitter_cfg.c **** * Summary:
 289:.\Generated_Source\PSoC5/cyfitter_cfg.c **** * Enables or disables the analog pumps feeding analog routing switches.
 290:.\Generated_Source\PSoC5/cyfitter_cfg.c **** * Intended to be called at startup, based on the Vdda system configuration;
 291:.\Generated_Source\PSoC5/cyfitter_cfg.c **** * may be called during operation when the user informs us that the Vdda voltage
 292:.\Generated_Source\PSoC5/cyfitter_cfg.c **** * crossed the pump threshold.
 293:.\Generated_Source\PSoC5/cyfitter_cfg.c **** *
 294:.\Generated_Source\PSoC5/cyfitter_cfg.c **** * Parameters:
 295:.\Generated_Source\PSoC5/cyfitter_cfg.c **** *  enabled - 1 to enable the pumps, 0 to disable the pumps
 296:.\Generated_Source\PSoC5/cyfitter_cfg.c **** *
 297:.\Generated_Source\PSoC5/cyfitter_cfg.c **** * Return:
 298:.\Generated_Source\PSoC5/cyfitter_cfg.c **** *  void
 299:.\Generated_Source\PSoC5/cyfitter_cfg.c **** *
 300:.\Generated_Source\PSoC5/cyfitter_cfg.c **** *******************************************************************************/
 301:.\Generated_Source\PSoC5/cyfitter_cfg.c **** void SetAnalogRoutingPumps(uint8 enabled)
 302:.\Generated_Source\PSoC5/cyfitter_cfg.c **** {
 385              		.loc 1 302 0
 386              		.cfi_startproc
 387              		@ args = 0, pretend = 0, frame = 0
 388              		@ frame_needed = 0, uses_anonymous_args = 0
 389              		@ link register save eliminated.
 390              	.LVL28:
 303:.\Generated_Source\PSoC5/cyfitter_cfg.c **** 	uint8 regValue = CY_GET_XTND_REG8((void CYFAR *)CYREG_PUMP_CR0);
 391              		.loc 1 303 0
 392 0000 054B     		ldr	r3, .L23
 393 0002 1B78     		ldrb	r3, [r3]	@ zero_extendqisi2
 394 0004 DBB2     		uxtb	r3, r3
 395              	.LVL29:
 304:.\Generated_Source\PSoC5/cyfitter_cfg.c **** 	if (enabled != 0u)
 396              		.loc 1 304 0
 397 0006 10B1     		cbz	r0, .L21
 305:.\Generated_Source\PSoC5/cyfitter_cfg.c **** 	{
 306:.\Generated_Source\PSoC5/cyfitter_cfg.c **** 		regValue |= 0x22u;
ARM GAS  C:\Users\Digi-Key\AppData\Local\Temp\ccjc2iXH.s 			page 14


 398              		.loc 1 306 0
 399 0008 43F02203 		orr	r3, r3, #34
 400              	.LVL30:
 401 000c 01E0     		b	.L22
 402              	.L21:
 307:.\Generated_Source\PSoC5/cyfitter_cfg.c **** 	}
 308:.\Generated_Source\PSoC5/cyfitter_cfg.c **** 	else
 309:.\Generated_Source\PSoC5/cyfitter_cfg.c **** 	{
 310:.\Generated_Source\PSoC5/cyfitter_cfg.c **** 		regValue &= (uint8)~0x22u;
 403              		.loc 1 310 0
 404 000e 03F0DD03 		and	r3, r3, #221
 405              	.LVL31:
 406              	.L22:
 311:.\Generated_Source\PSoC5/cyfitter_cfg.c **** 	}
 312:.\Generated_Source\PSoC5/cyfitter_cfg.c **** 	CY_SET_XTND_REG8((void CYFAR *)CYREG_PUMP_CR0, regValue);
 407              		.loc 1 312 0
 408 0012 014A     		ldr	r2, .L23
 409 0014 1370     		strb	r3, [r2]
 410 0016 7047     		bx	lr
 411              	.L24:
 412              		.align	2
 413              	.L23:
 414 0018 76580040 		.word	1073764470
 415              		.cfi_endproc
 416              	.LFE7:
 417              		.size	SetAnalogRoutingPumps, .-SetAnalogRoutingPumps
 418              		.section	.text.ADC_AMux_Set,"ax",%progbits
 419              		.align	2
 420              		.global	ADC_AMux_Set
 421              		.thumb
 422              		.thumb_func
 423              		.type	ADC_AMux_Set, %function
 424              	ADC_AMux_Set:
 425              	.LFB8:
 313:.\Generated_Source\PSoC5/cyfitter_cfg.c **** }
 314:.\Generated_Source\PSoC5/cyfitter_cfg.c **** 
 315:.\Generated_Source\PSoC5/cyfitter_cfg.c **** #define CY_AMUX_UNUSED CYREG_BOOST_SR
 316:.\Generated_Source\PSoC5/cyfitter_cfg.c **** /* This is an implementation detail of the AMux. Code that depends on it may be
 317:.\Generated_Source\PSoC5/cyfitter_cfg.c ****    incompatible with other versions of PSoC Creator. */
 318:.\Generated_Source\PSoC5/cyfitter_cfg.c **** uint8 CYXDATA * const CYCODE ADC_AMux__addrTable[2] = {
 319:.\Generated_Source\PSoC5/cyfitter_cfg.c **** 	(uint8 CYXDATA *)CYREG_DSM0_SW3, 
 320:.\Generated_Source\PSoC5/cyfitter_cfg.c **** 	(uint8 CYXDATA *)CY_AMUX_UNUSED, 
 321:.\Generated_Source\PSoC5/cyfitter_cfg.c **** };
 322:.\Generated_Source\PSoC5/cyfitter_cfg.c **** 
 323:.\Generated_Source\PSoC5/cyfitter_cfg.c **** /* This is an implementation detail of the AMux. Code that depends on it may be
 324:.\Generated_Source\PSoC5/cyfitter_cfg.c ****    incompatible with other versions of PSoC Creator. */
 325:.\Generated_Source\PSoC5/cyfitter_cfg.c **** const uint8 CYCODE ADC_AMux__maskTable[2] = {
 326:.\Generated_Source\PSoC5/cyfitter_cfg.c **** 	0x40u, 
 327:.\Generated_Source\PSoC5/cyfitter_cfg.c **** 	0x00u, 
 328:.\Generated_Source\PSoC5/cyfitter_cfg.c **** };
 329:.\Generated_Source\PSoC5/cyfitter_cfg.c **** 
 330:.\Generated_Source\PSoC5/cyfitter_cfg.c **** /*******************************************************************************
 331:.\Generated_Source\PSoC5/cyfitter_cfg.c **** * Function Name: ADC_AMux_Set
 332:.\Generated_Source\PSoC5/cyfitter_cfg.c **** ********************************************************************************
 333:.\Generated_Source\PSoC5/cyfitter_cfg.c **** * Summary:
 334:.\Generated_Source\PSoC5/cyfitter_cfg.c **** *  This function is used to set a particular channel as active on the AMux.
 335:.\Generated_Source\PSoC5/cyfitter_cfg.c **** *
ARM GAS  C:\Users\Digi-Key\AppData\Local\Temp\ccjc2iXH.s 			page 15


 336:.\Generated_Source\PSoC5/cyfitter_cfg.c **** * Parameters:  
 337:.\Generated_Source\PSoC5/cyfitter_cfg.c **** *   channel - The mux channel input to set as active
 338:.\Generated_Source\PSoC5/cyfitter_cfg.c **** *
 339:.\Generated_Source\PSoC5/cyfitter_cfg.c **** * Return:
 340:.\Generated_Source\PSoC5/cyfitter_cfg.c **** *   void
 341:.\Generated_Source\PSoC5/cyfitter_cfg.c **** *
 342:.\Generated_Source\PSoC5/cyfitter_cfg.c **** *******************************************************************************/
 343:.\Generated_Source\PSoC5/cyfitter_cfg.c **** void ADC_AMux_Set(uint8 channel)
 344:.\Generated_Source\PSoC5/cyfitter_cfg.c **** {
 426              		.loc 1 344 0
 427              		.cfi_startproc
 428              		@ args = 0, pretend = 0, frame = 0
 429              		@ frame_needed = 0, uses_anonymous_args = 0
 430              		@ link register save eliminated.
 431              	.LVL32:
 345:.\Generated_Source\PSoC5/cyfitter_cfg.c **** 	if (channel < 2)
 432              		.loc 1 345 0
 433 0000 0128     		cmp	r0, #1
 434 0002 07D8     		bhi	.L25
 346:.\Generated_Source\PSoC5/cyfitter_cfg.c **** 	{
 347:.\Generated_Source\PSoC5/cyfitter_cfg.c **** 		*ADC_AMux__addrTable[channel] |= ADC_AMux__maskTable[channel];
 435              		.loc 1 347 0
 436 0004 044A     		ldr	r2, .L27
 437 0006 52F82030 		ldr	r3, [r2, r0, lsl #2]
 438 000a 1044     		add	r0, r0, r2
 439              	.LVL33:
 440 000c 017A     		ldrb	r1, [r0, #8]	@ zero_extendqisi2
 441 000e 1A78     		ldrb	r2, [r3]	@ zero_extendqisi2
 442 0010 0A43     		orrs	r2, r2, r1
 443 0012 1A70     		strb	r2, [r3]
 444              	.L25:
 445 0014 7047     		bx	lr
 446              	.L28:
 447 0016 00BF     		.align	2
 448              	.L27:
 449 0018 00000000 		.word	.LANCHOR0
 450              		.cfi_endproc
 451              	.LFE8:
 452              		.size	ADC_AMux_Set, .-ADC_AMux_Set
 453              		.section	.text.ADC_AMux_Unset,"ax",%progbits
 454              		.align	2
 455              		.global	ADC_AMux_Unset
 456              		.thumb
 457              		.thumb_func
 458              		.type	ADC_AMux_Unset, %function
 459              	ADC_AMux_Unset:
 460              	.LFB9:
 348:.\Generated_Source\PSoC5/cyfitter_cfg.c **** 	}
 349:.\Generated_Source\PSoC5/cyfitter_cfg.c **** }
 350:.\Generated_Source\PSoC5/cyfitter_cfg.c **** 
 351:.\Generated_Source\PSoC5/cyfitter_cfg.c **** /*******************************************************************************
 352:.\Generated_Source\PSoC5/cyfitter_cfg.c **** * Function Name: ADC_AMux_Unset
 353:.\Generated_Source\PSoC5/cyfitter_cfg.c **** ********************************************************************************
 354:.\Generated_Source\PSoC5/cyfitter_cfg.c **** * Summary:
 355:.\Generated_Source\PSoC5/cyfitter_cfg.c **** *  This function is used to clear a particular channel from being active on the
 356:.\Generated_Source\PSoC5/cyfitter_cfg.c **** *  AMux.
 357:.\Generated_Source\PSoC5/cyfitter_cfg.c **** *
ARM GAS  C:\Users\Digi-Key\AppData\Local\Temp\ccjc2iXH.s 			page 16


 358:.\Generated_Source\PSoC5/cyfitter_cfg.c **** * Parameters:  
 359:.\Generated_Source\PSoC5/cyfitter_cfg.c **** *   channel - The mux channel input to mark inactive
 360:.\Generated_Source\PSoC5/cyfitter_cfg.c **** *
 361:.\Generated_Source\PSoC5/cyfitter_cfg.c **** * Return:
 362:.\Generated_Source\PSoC5/cyfitter_cfg.c **** *   void
 363:.\Generated_Source\PSoC5/cyfitter_cfg.c **** *
 364:.\Generated_Source\PSoC5/cyfitter_cfg.c **** *******************************************************************************/
 365:.\Generated_Source\PSoC5/cyfitter_cfg.c **** void ADC_AMux_Unset(uint8 channel)
 366:.\Generated_Source\PSoC5/cyfitter_cfg.c **** {
 461              		.loc 1 366 0
 462              		.cfi_startproc
 463              		@ args = 0, pretend = 0, frame = 0
 464              		@ frame_needed = 0, uses_anonymous_args = 0
 465              		@ link register save eliminated.
 466              	.LVL34:
 367:.\Generated_Source\PSoC5/cyfitter_cfg.c **** 	if (channel < 2)
 467              		.loc 1 367 0
 468 0000 0128     		cmp	r0, #1
 469 0002 08D8     		bhi	.L29
 368:.\Generated_Source\PSoC5/cyfitter_cfg.c **** 	{
 369:.\Generated_Source\PSoC5/cyfitter_cfg.c **** 		*ADC_AMux__addrTable[channel] &= (uint8)~ADC_AMux__maskTable[channel];
 470              		.loc 1 369 0
 471 0004 044A     		ldr	r2, .L31
 472 0006 52F82030 		ldr	r3, [r2, r0, lsl #2]
 473 000a 1044     		add	r0, r0, r2
 474              	.LVL35:
 475 000c 017A     		ldrb	r1, [r0, #8]	@ zero_extendqisi2
 476 000e 1A78     		ldrb	r2, [r3]	@ zero_extendqisi2
 477 0010 22EA0102 		bic	r2, r2, r1
 478 0014 1A70     		strb	r2, [r3]
 479              	.L29:
 480 0016 7047     		bx	lr
 481              	.L32:
 482              		.align	2
 483              	.L31:
 484 0018 00000000 		.word	.LANCHOR0
 485              		.cfi_endproc
 486              	.LFE9:
 487              		.size	ADC_AMux_Unset, .-ADC_AMux_Unset
 488              		.section	.text.cyfitter_cfg,"ax",%progbits
 489              		.align	2
 490              		.global	cyfitter_cfg
 491              		.thumb
 492              		.thumb_func
 493              		.type	cyfitter_cfg, %function
 494              	cyfitter_cfg:
 495              	.LFB10:
 370:.\Generated_Source\PSoC5/cyfitter_cfg.c **** 	}
 371:.\Generated_Source\PSoC5/cyfitter_cfg.c **** }
 372:.\Generated_Source\PSoC5/cyfitter_cfg.c **** 
 373:.\Generated_Source\PSoC5/cyfitter_cfg.c **** 
 374:.\Generated_Source\PSoC5/cyfitter_cfg.c **** 
 375:.\Generated_Source\PSoC5/cyfitter_cfg.c **** /*******************************************************************************
 376:.\Generated_Source\PSoC5/cyfitter_cfg.c **** * Function Name: cyfitter_cfg
 377:.\Generated_Source\PSoC5/cyfitter_cfg.c **** ********************************************************************************
 378:.\Generated_Source\PSoC5/cyfitter_cfg.c **** * Summary:
 379:.\Generated_Source\PSoC5/cyfitter_cfg.c **** *  This function is called by the start-up code for the selected device. It
ARM GAS  C:\Users\Digi-Key\AppData\Local\Temp\ccjc2iXH.s 			page 17


 380:.\Generated_Source\PSoC5/cyfitter_cfg.c **** *  performs all of the necessary device configuration based on the design
 381:.\Generated_Source\PSoC5/cyfitter_cfg.c **** *  settings.  This includes settings from the Design Wide Resources (DWR) such
 382:.\Generated_Source\PSoC5/cyfitter_cfg.c **** *  as Clocks and Pins as well as any component configuration that is necessary.
 383:.\Generated_Source\PSoC5/cyfitter_cfg.c **** *
 384:.\Generated_Source\PSoC5/cyfitter_cfg.c **** * Parameters:  
 385:.\Generated_Source\PSoC5/cyfitter_cfg.c **** *   void
 386:.\Generated_Source\PSoC5/cyfitter_cfg.c **** *
 387:.\Generated_Source\PSoC5/cyfitter_cfg.c **** * Return:
 388:.\Generated_Source\PSoC5/cyfitter_cfg.c **** *   void
 389:.\Generated_Source\PSoC5/cyfitter_cfg.c **** *
 390:.\Generated_Source\PSoC5/cyfitter_cfg.c **** *******************************************************************************/
 391:.\Generated_Source\PSoC5/cyfitter_cfg.c **** 
 392:.\Generated_Source\PSoC5/cyfitter_cfg.c **** void cyfitter_cfg(void)
 393:.\Generated_Source\PSoC5/cyfitter_cfg.c **** {
 496              		.loc 1 393 0
 497              		.cfi_startproc
 498              		@ args = 0, pretend = 0, frame = 0
 499              		@ frame_needed = 0, uses_anonymous_args = 0
 500 0000 38B5     		push	{r3, r4, r5, lr}
 501              		.cfi_def_cfa_offset 16
 502              		.cfi_offset 3, -16
 503              		.cfi_offset 4, -12
 504              		.cfi_offset 5, -8
 505              		.cfi_offset 14, -4
 394:.\Generated_Source\PSoC5/cyfitter_cfg.c **** #ifdef CYGlobalIntDisable
 395:.\Generated_Source\PSoC5/cyfitter_cfg.c **** 	/* Disable interrupts by default. Let user enable if/when they want. */
 396:.\Generated_Source\PSoC5/cyfitter_cfg.c **** 	CYGlobalIntDisable
 506              		.loc 1 396 0
 507              	@ 396 ".\Generated_Source\PSoC5\cyfitter_cfg.c" 1
 508 0002 72B6     		CPSID   i
 509              	@ 0 "" 2
 397:.\Generated_Source\PSoC5/cyfitter_cfg.c **** #endif
 398:.\Generated_Source\PSoC5/cyfitter_cfg.c **** 
 399:.\Generated_Source\PSoC5/cyfitter_cfg.c **** 	/* Enable/Disable Debug functionality based on settings from System DWR */
 400:.\Generated_Source\PSoC5/cyfitter_cfg.c **** 	CY_SET_XTND_REG8((void CYFAR *)CYREG_MLOGIC_DEBUG, (CY_GET_XTND_REG8((void CYFAR *)CYREG_MLOGIC_DE
 510              		.loc 1 400 0
 511              		.thumb
 512 0004 304B     		ldr	r3, .L38
 513 0006 1A78     		ldrb	r2, [r3]	@ zero_extendqisi2
 514 0008 42F00402 		orr	r2, r2, #4
 515 000c 1A70     		strb	r2, [r3]
 516              	.LVL36:
 517              	.LBB3:
 401:.\Generated_Source\PSoC5/cyfitter_cfg.c **** 
 402:.\Generated_Source\PSoC5/cyfitter_cfg.c **** 	{
 403:.\Generated_Source\PSoC5/cyfitter_cfg.c **** 
 404:.\Generated_Source\PSoC5/cyfitter_cfg.c **** 		CYPACKED typedef struct {
 405:.\Generated_Source\PSoC5/cyfitter_cfg.c **** 			void CYFAR *address;
 406:.\Generated_Source\PSoC5/cyfitter_cfg.c **** 			uint16 size;
 407:.\Generated_Source\PSoC5/cyfitter_cfg.c **** 		} CYPACKED_ATTR cfg_memset_t;
 408:.\Generated_Source\PSoC5/cyfitter_cfg.c **** 
 409:.\Generated_Source\PSoC5/cyfitter_cfg.c **** 
 410:.\Generated_Source\PSoC5/cyfitter_cfg.c **** 		CYPACKED typedef struct {
 411:.\Generated_Source\PSoC5/cyfitter_cfg.c **** 			void CYFAR *dest;
 412:.\Generated_Source\PSoC5/cyfitter_cfg.c **** 			const void CYFAR *src;
 413:.\Generated_Source\PSoC5/cyfitter_cfg.c **** 			uint16 size;
 414:.\Generated_Source\PSoC5/cyfitter_cfg.c **** 		} CYPACKED_ATTR cfg_memcpy_t;
ARM GAS  C:\Users\Digi-Key\AppData\Local\Temp\ccjc2iXH.s 			page 18


 415:.\Generated_Source\PSoC5/cyfitter_cfg.c **** 
 416:.\Generated_Source\PSoC5/cyfitter_cfg.c **** 		static const cfg_memset_t CYCODE cfg_memset_list [] = {
 417:.\Generated_Source\PSoC5/cyfitter_cfg.c **** 			/* address, size */
 418:.\Generated_Source\PSoC5/cyfitter_cfg.c **** 			{(void CYFAR *)(CYREG_PRT0_DR), 48u},
 419:.\Generated_Source\PSoC5/cyfitter_cfg.c **** 			{(void CYFAR *)(CYREG_PRT4_DR), 48u},
 420:.\Generated_Source\PSoC5/cyfitter_cfg.c **** 			{(void CYFAR *)(CYREG_PRT15_DR), 16u},
 421:.\Generated_Source\PSoC5/cyfitter_cfg.c **** 			{(void CYFAR *)(CYDEV_UCFG_B0_P0_U0_BASE), 4096u},
 422:.\Generated_Source\PSoC5/cyfitter_cfg.c **** 			{(void CYFAR *)(CYDEV_UCFG_B1_P2_U0_BASE), 2048u},
 423:.\Generated_Source\PSoC5/cyfitter_cfg.c **** 			{(void CYFAR *)(CYDEV_UCFG_DSI0_BASE), 2560u},
 424:.\Generated_Source\PSoC5/cyfitter_cfg.c **** 			{(void CYFAR *)(CYDEV_UCFG_DSI12_BASE), 512u},
 425:.\Generated_Source\PSoC5/cyfitter_cfg.c **** 			{(void CYFAR *)(CYREG_BCTL0_MDCLK_EN), 32u},
 426:.\Generated_Source\PSoC5/cyfitter_cfg.c **** 		};
 427:.\Generated_Source\PSoC5/cyfitter_cfg.c **** 
 428:.\Generated_Source\PSoC5/cyfitter_cfg.c **** 		static const cfg_memcpy_t CYCODE cfg_memcpy_list [] = {
 429:.\Generated_Source\PSoC5/cyfitter_cfg.c **** 			/* dest, src, size */
 430:.\Generated_Source\PSoC5/cyfitter_cfg.c **** 			{(void CYFAR *)(CYDEV_PRTDSI_PRT12_BASE), BS_IOPORT_7_VAL, 6u},
 431:.\Generated_Source\PSoC5/cyfitter_cfg.c **** 		};
 432:.\Generated_Source\PSoC5/cyfitter_cfg.c **** 
 433:.\Generated_Source\PSoC5/cyfitter_cfg.c **** 		uint8 CYDATA i;
 434:.\Generated_Source\PSoC5/cyfitter_cfg.c **** 
 435:.\Generated_Source\PSoC5/cyfitter_cfg.c **** 		/* Zero out critical memory blocks before beginning configuration */
 436:.\Generated_Source\PSoC5/cyfitter_cfg.c **** 		for (i = 0u; i < (sizeof(cfg_memset_list)/sizeof(cfg_memset_list[0])); i++)
 518              		.loc 1 436 0
 519 000e 0024     		movs	r4, #0
 520              	.LBB4:
 437:.\Generated_Source\PSoC5/cyfitter_cfg.c **** 		{
 438:.\Generated_Source\PSoC5/cyfitter_cfg.c **** 			const cfg_memset_t CYCODE * CYDATA ms = &cfg_memset_list[i];
 521              		.loc 1 438 0
 522 0010 2E4D     		ldr	r5, .L38+4
 523              	.LBE4:
 436:.\Generated_Source\PSoC5/cyfitter_cfg.c **** 		for (i = 0u; i < (sizeof(cfg_memset_list)/sizeof(cfg_memset_list[0])); i++)
 524              		.loc 1 436 0
 525 0012 09E0     		b	.L34
 526              	.LVL37:
 527              	.L35:
 528              	.LBB5:
 529              		.loc 1 438 0 discriminator 2
 530 0014 04EB4403 		add	r3, r4, r4, lsl #1
 531 0018 5B00     		lsls	r3, r3, #1
 532 001a 2B44     		add	r3, r3, r5
 533              	.LVL38:
 439:.\Generated_Source\PSoC5/cyfitter_cfg.c **** 			CYMEMZERO(ms->address, (size_t)(uint32)(ms->size));
 534              		.loc 1 439 0 discriminator 2
 535 001c 1868     		ldr	r0, [r3]	@ unaligned
 536 001e 9988     		ldrh	r1, [r3, #4]
 537 0020 FFF7FEFF 		bl	CYMEMZERO
 538              	.LVL39:
 539              	.LBE5:
 436:.\Generated_Source\PSoC5/cyfitter_cfg.c **** 		for (i = 0u; i < (sizeof(cfg_memset_list)/sizeof(cfg_memset_list[0])); i++)
 540              		.loc 1 436 0 discriminator 2
 541 0024 0134     		adds	r4, r4, #1
 542              	.LVL40:
 543 0026 E4B2     		uxtb	r4, r4
 544              	.LVL41:
 545              	.L34:
 436:.\Generated_Source\PSoC5/cyfitter_cfg.c **** 		for (i = 0u; i < (sizeof(cfg_memset_list)/sizeof(cfg_memset_list[0])); i++)
 546              		.loc 1 436 0 is_stmt 0 discriminator 1
ARM GAS  C:\Users\Digi-Key\AppData\Local\Temp\ccjc2iXH.s 			page 19


 547 0028 072C     		cmp	r4, #7
 548 002a F3D9     		bls	.L35
 549 002c 0024     		movs	r4, #0
 550              	.LVL42:
 551              	.LBB6:
 440:.\Generated_Source\PSoC5/cyfitter_cfg.c **** 		}
 441:.\Generated_Source\PSoC5/cyfitter_cfg.c **** 
 442:.\Generated_Source\PSoC5/cyfitter_cfg.c **** 		/* Copy device configuration data into registers */
 443:.\Generated_Source\PSoC5/cyfitter_cfg.c **** 		for (i = 0u; i < (sizeof(cfg_memcpy_list)/sizeof(cfg_memcpy_list[0])); i++)
 444:.\Generated_Source\PSoC5/cyfitter_cfg.c **** 		{
 445:.\Generated_Source\PSoC5/cyfitter_cfg.c **** 			const cfg_memcpy_t CYCODE * CYDATA mc = &cfg_memcpy_list[i];
 552              		.loc 1 445 0 is_stmt 1
 553 002e 284D     		ldr	r5, .L38+8
 554 0030 0AE0     		b	.L36
 555              	.LVL43:
 556              	.L37:
 557              		.loc 1 445 0 is_stmt 0 discriminator 2
 558 0032 04EB8403 		add	r3, r4, r4, lsl #2
 559 0036 5B00     		lsls	r3, r3, #1
 560 0038 2B44     		add	r3, r3, r5
 561              	.LVL44:
 446:.\Generated_Source\PSoC5/cyfitter_cfg.c **** 			void * CYDATA destPtr = mc->dest;
 447:.\Generated_Source\PSoC5/cyfitter_cfg.c **** 			const void * CYDATA srcPtr = mc->src;
 448:.\Generated_Source\PSoC5/cyfitter_cfg.c **** 			uint16 CYDATA numBytes = mc->size;
 449:.\Generated_Source\PSoC5/cyfitter_cfg.c **** 			CYCONFIGCPY(destPtr, srcPtr, numBytes);
 562              		.loc 1 449 0 is_stmt 1 discriminator 2
 563 003a 1868     		ldr	r0, [r3]	@ unaligned
 564              	.LVL45:
 565 003c 5968     		ldr	r1, [r3, #4]	@ unaligned
 566              	.LVL46:
 567 003e 1A89     		ldrh	r2, [r3, #8]
 568 0040 FFF7FEFF 		bl	CYCONFIGCPY
 569              	.LVL47:
 570              	.LBE6:
 443:.\Generated_Source\PSoC5/cyfitter_cfg.c **** 		for (i = 0u; i < (sizeof(cfg_memcpy_list)/sizeof(cfg_memcpy_list[0])); i++)
 571              		.loc 1 443 0 discriminator 2
 572 0044 0134     		adds	r4, r4, #1
 573              	.LVL48:
 574 0046 E4B2     		uxtb	r4, r4
 575              	.LVL49:
 576              	.L36:
 443:.\Generated_Source\PSoC5/cyfitter_cfg.c **** 		for (i = 0u; i < (sizeof(cfg_memcpy_list)/sizeof(cfg_memcpy_list[0])); i++)
 577              		.loc 1 443 0 is_stmt 0 discriminator 1
 578 0048 002C     		cmp	r4, #0
 579 004a F2D0     		beq	.L37
 450:.\Generated_Source\PSoC5/cyfitter_cfg.c **** 		}
 451:.\Generated_Source\PSoC5/cyfitter_cfg.c **** 
 452:.\Generated_Source\PSoC5/cyfitter_cfg.c **** 		cfg_write_bytes32(cy_cfg_addr_table, cy_cfg_data_table);
 580              		.loc 1 452 0 is_stmt 1
 581 004c 4FF09040 		mov	r0, #1207959552
 582 0050 2049     		ldr	r1, .L38+12
 583 0052 FFF7FEFF 		bl	cfg_write_bytes32
 584              	.LVL50:
 453:.\Generated_Source\PSoC5/cyfitter_cfg.c **** 
 454:.\Generated_Source\PSoC5/cyfitter_cfg.c **** 		/* Perform normal device configuration. Order is not critical for these items. */
 455:.\Generated_Source\PSoC5/cyfitter_cfg.c **** 		CY_SET_XTND_REG8((void CYFAR *)(CYREG_DSM0_CR3), 0x0Au);
 585              		.loc 1 455 0
ARM GAS  C:\Users\Digi-Key\AppData\Local\Temp\ccjc2iXH.s 			page 20


 586 0056 0A22     		movs	r2, #10
 587 0058 1F4B     		ldr	r3, .L38+16
 588 005a 1A70     		strb	r2, [r3]
 456:.\Generated_Source\PSoC5/cyfitter_cfg.c **** 
 457:.\Generated_Source\PSoC5/cyfitter_cfg.c **** 		/* Enable digital routing */
 458:.\Generated_Source\PSoC5/cyfitter_cfg.c **** 		CY_SET_XTND_REG8((void CYFAR *)CYREG_BCTL0_BANK_CTL, CY_GET_XTND_REG8((void CYFAR *)CYREG_BCTL0_B
 589              		.loc 1 458 0
 590 005c 03F57743 		add	r3, r3, #63232
 591 0060 8033     		adds	r3, r3, #128
 592 0062 1978     		ldrb	r1, [r3]	@ zero_extendqisi2
 593 0064 41F00201 		orr	r1, r1, #2
 594 0068 1970     		strb	r1, [r3]
 459:.\Generated_Source\PSoC5/cyfitter_cfg.c **** 		CY_SET_XTND_REG8((void CYFAR *)CYREG_BCTL1_BANK_CTL, CY_GET_XTND_REG8((void CYFAR *)CYREG_BCTL1_B
 595              		.loc 1 459 0
 596 006a 1033     		adds	r3, r3, #16
 597 006c 1978     		ldrb	r1, [r3]	@ zero_extendqisi2
 598 006e 41F00201 		orr	r1, r1, #2
 599 0072 1970     		strb	r1, [r3]
 460:.\Generated_Source\PSoC5/cyfitter_cfg.c **** 
 461:.\Generated_Source\PSoC5/cyfitter_cfg.c **** 		/* Enable UDB array */
 462:.\Generated_Source\PSoC5/cyfitter_cfg.c **** 		CY_SET_XTND_REG8((void CYFAR *)CYREG_PM_ACT_CFG0, CY_GET_XTND_REG8((void CYFAR *)CYREG_PM_ACT_CFG
 600              		.loc 1 462 0
 601 0074 194C     		ldr	r4, .L38+20
 602              	.LVL51:
 603 0076 2378     		ldrb	r3, [r4]	@ zero_extendqisi2
 604 0078 43F04003 		orr	r3, r3, #64
 605 007c 2370     		strb	r3, [r4]
 463:.\Generated_Source\PSoC5/cyfitter_cfg.c **** 		CY_SET_XTND_REG8((void CYFAR *)CYREG_PM_AVAIL_CR2, CY_GET_XTND_REG8((void CYFAR *)CYREG_PM_AVAIL_
 606              		.loc 1 463 0
 607 007e 184B     		ldr	r3, .L38+24
 608 0080 1978     		ldrb	r1, [r3]	@ zero_extendqisi2
 609 0082 41F01001 		orr	r1, r1, #16
 610 0086 1970     		strb	r1, [r3]
 611              	.LBE3:
 464:.\Generated_Source\PSoC5/cyfitter_cfg.c **** 	}
 465:.\Generated_Source\PSoC5/cyfitter_cfg.c **** 
 466:.\Generated_Source\PSoC5/cyfitter_cfg.c **** 
 467:.\Generated_Source\PSoC5/cyfitter_cfg.c **** 	/* Perform second pass device configuration. These items must be configured in specific order afte
 468:.\Generated_Source\PSoC5/cyfitter_cfg.c **** 	CYCONFIGCPY((void CYFAR *)(CYREG_PRT12_DR), (const void CYFAR *)(BS_IOPINS0_7_VAL), 10u);
 612              		.loc 1 468 0
 613 0088 1648     		ldr	r0, .L38+28
 614 008a 1749     		ldr	r1, .L38+32
 615 008c FFF7FEFF 		bl	CYCONFIGCPY
 616              	.LVL52:
 469:.\Generated_Source\PSoC5/cyfitter_cfg.c **** 	CYCONFIGCPY((void CYFAR *)(CYREG_PRT3_DM0), (const void CYFAR *)(BS_IOPINS0_3_VAL), 8u);
 617              		.loc 1 469 0
 618 0090 1648     		ldr	r0, .L38+36
 619 0092 1749     		ldr	r1, .L38+40
 620 0094 0822     		movs	r2, #8
 621 0096 FFF7FEFF 		bl	CYCONFIGCPY
 622              	.LVL53:
 470:.\Generated_Source\PSoC5/cyfitter_cfg.c **** 	/* Switch Boost to the precision bandgap reference from its internal reference */
 471:.\Generated_Source\PSoC5/cyfitter_cfg.c **** 	CY_SET_REG8((void CYXDATA *)CYREG_BOOST_CR2, (CY_GET_REG8((void CYXDATA *)CYREG_BOOST_CR2) | 0x08u
 623              		.loc 1 471 0
 624 009a 164B     		ldr	r3, .L38+44
 625 009c 1A78     		ldrb	r2, [r3]	@ zero_extendqisi2
 626 009e 42F00802 		orr	r2, r2, #8
ARM GAS  C:\Users\Digi-Key\AppData\Local\Temp\ccjc2iXH.s 			page 21


 627 00a2 1A70     		strb	r2, [r3]
 472:.\Generated_Source\PSoC5/cyfitter_cfg.c **** 
 473:.\Generated_Source\PSoC5/cyfitter_cfg.c **** 	/* Set Flash Cycles based on max possible frequency in case a glitch occurs during ClockSetup(). *
 474:.\Generated_Source\PSoC5/cyfitter_cfg.c **** 	CY_SET_XTND_REG8((void CYFAR *)(CYREG_CACHE_CC_CTL), (((CYDEV_INSTRUCT_CACHE_ENABLED) != 0) ? 0x61
 628              		.loc 1 474 0
 629 00a4 144D     		ldr	r5, .L38+48
 630 00a6 6123     		movs	r3, #97
 631 00a8 2B70     		strb	r3, [r5]
 475:.\Generated_Source\PSoC5/cyfitter_cfg.c **** 	/* Setup clocks based on selections from Clock DWR */
 476:.\Generated_Source\PSoC5/cyfitter_cfg.c **** 	ClockSetup();
 632              		.loc 1 476 0
 633 00aa FFF7FEFF 		bl	ClockSetup
 634              	.LVL54:
 477:.\Generated_Source\PSoC5/cyfitter_cfg.c **** 	/* Set Flash Cycles based on newly configured 24.00MHz Bus Clock. */
 478:.\Generated_Source\PSoC5/cyfitter_cfg.c **** 	CY_SET_XTND_REG8((void CYFAR *)(CYREG_CACHE_CC_CTL), (((CYDEV_INSTRUCT_CACHE_ENABLED) != 0) ? 0x81
 635              		.loc 1 478 0
 636 00ae 8123     		movs	r3, #129
 637 00b0 2B70     		strb	r3, [r5]
 479:.\Generated_Source\PSoC5/cyfitter_cfg.c **** 	CY_SET_XTND_REG8((void CYFAR *)(CYREG_PANTHER_WAITPIPE), 0x01u);
 638              		.loc 1 479 0
 639 00b2 0122     		movs	r2, #1
 640 00b4 114B     		ldr	r3, .L38+52
 641 00b6 1A70     		strb	r2, [r3]
 480:.\Generated_Source\PSoC5/cyfitter_cfg.c **** 
 481:.\Generated_Source\PSoC5/cyfitter_cfg.c **** 	/* Perform basic analog initialization to defaults */
 482:.\Generated_Source\PSoC5/cyfitter_cfg.c **** 	AnalogSetDefault();
 642              		.loc 1 482 0
 643 00b8 FFF7FEFF 		bl	AnalogSetDefault
 644              	.LVL55:
 483:.\Generated_Source\PSoC5/cyfitter_cfg.c **** 
 484:.\Generated_Source\PSoC5/cyfitter_cfg.c **** 	/* Configure alternate active mode */
 485:.\Generated_Source\PSoC5/cyfitter_cfg.c **** 	CYCONFIGCPY((void CYFAR *)CYDEV_PM_STBY_BASE, (const void CYFAR *)CYDEV_PM_ACT_BASE, 14u);
 645              		.loc 1 485 0
 646 00bc 1048     		ldr	r0, .L38+56
 647 00be 2146     		mov	r1, r4
 648 00c0 0E22     		movs	r2, #14
 649 00c2 FFF7FEFF 		bl	CYCONFIGCPY
 650              	.LVL56:
 651 00c6 38BD     		pop	{r3, r4, r5, pc}
 652              	.L39:
 653              		.align	2
 654              	.L38:
 655 00c8 E8460040 		.word	1073759976
 656 00cc 0C000000 		.word	.LANCHOR0+12
 657 00d0 3C000000 		.word	.LANCHOR0+60
 658 00d4 44000048 		.word	1207959620
 659 00d8 83580040 		.word	1073764483
 660 00dc A0430040 		.word	1073759136
 661 00e0 C2430040 		.word	1073759170
 662 00e4 C0510040 		.word	1073762752
 663 00e8 20030048 		.word	1207960352
 664 00ec 32510040 		.word	1073762610
 665 00f0 2C030048 		.word	1207960364
 666 00f4 22430040 		.word	1073759010
 667 00f8 00480040 		.word	1073760256
 668 00fc 04000840 		.word	1074266116
 669 0100 B0430040 		.word	1073759152
ARM GAS  C:\Users\Digi-Key\AppData\Local\Temp\ccjc2iXH.s 			page 22


 670              		.cfi_endproc
 671              	.LFE10:
 672              		.size	cyfitter_cfg, .-cyfitter_cfg
 673              		.global	ADC_AMux__maskTable
 674              		.global	ADC_AMux__addrTable
 675              		.section	.rodata
 676              		.align	2
 677              		.set	.LANCHOR0,. + 0
 678              		.type	ADC_AMux__addrTable, %object
 679              		.size	ADC_AMux__addrTable, 8
 680              	ADC_AMux__addrTable:
 681 0000 035B0040 		.word	1073765123
 682 0004 24430040 		.word	1073759012
 683              		.type	ADC_AMux__maskTable, %object
 684              		.size	ADC_AMux__maskTable, 2
 685              	ADC_AMux__maskTable:
 686 0008 40       		.byte	64
 687 0009 00       		.byte	0
 688 000a 0000     		.space	2
 689              		.type	cfg_memset_list.4902, %object
 690              		.size	cfg_memset_list.4902, 48
 691              	cfg_memset_list.4902:
 692 000c 00510040 		.word	1073762560
 693 0010 3000     		.short	48
 694 0012 40510040 		.4byte	1073762624
 695 0016 3000     		.short	48
 696 0018 F0510040 		.word	1073762800
 697 001c 1000     		.short	16
 698 001e 00000140 		.4byte	1073807360
 699 0022 0010     		.short	4096
 700 0024 00140140 		.word	1073812480
 701 0028 0008     		.short	2048
 702 002a 00400140 		.4byte	1073823744
 703 002e 000A     		.short	2560
 704 0030 004C0140 		.word	1073826816
 705 0034 0002     		.short	512
 706 0036 00500140 		.4byte	1073827840
 707 003a 2000     		.short	32
 708              		.type	cfg_memcpy_list.4903, %object
 709              		.size	cfg_memcpy_list.4903, 10
 710              	cfg_memcpy_list.4903:
 711 003c 60520040 		.word	1073762912
 712 0040 18030048 		.word	1207960344
 713 0044 0600     		.short	6
 714 0046 0000     		.text
 715              	.Letext0:
 716              		.file 2 "c:\\program files (x86)\\cypress\\psoc creator\\3.2\\psoc creator\\import\\gnu\\arm\\4.8.
 717              		.file 3 ".\\Generated_Source\\PSoC5\\cytypes.h"
 718              		.file 4 ".\\Generated_Source\\PSoC5\\CyLib.h"