ARM GAS  C:\Users\Digi-Key\AppData\Local\Temp\ccB1a1GB.s 			page 1


   1              		.syntax unified
   2              		.cpu cortex-m3
   3              		.fpu softvfp
   4              		.eabi_attribute 20, 1
   5              		.eabi_attribute 21, 1
   6              		.eabi_attribute 23, 3
   7              		.eabi_attribute 24, 1
   8              		.eabi_attribute 25, 1
   9              		.eabi_attribute 26, 1
  10              		.eabi_attribute 30, 1
  11              		.eabi_attribute 34, 1
  12              		.eabi_attribute 18, 4
  13              		.thumb
  14              		.file	"main.c"
  15              		.text
  16              	.Ltext0:
  17              		.cfi_sections	.debug_frame
  18              		.global	__aeabi_f2d
  19              		.section	.text.main,"ax",%progbits
  20              		.align	2
  21              		.global	main
  22              		.thumb
  23              		.thumb_func
  24              		.type	main, %function
  25              	main:
  26              	.LFB63:
  27              		.file 1 ".\\main.c"
   1:.\main.c      **** /* ========================================
   2:.\main.c      ****  *
   3:.\main.c      ****  * VDAC example 
   4:.\main.c      ****  *
   5:.\main.c      ****  * ========================================
   6:.\main.c      **** */
   7:.\main.c      **** #include <project.h>
   8:.\main.c      **** #include <stdio.h> 
   9:.\main.c      **** #include <math.h> 
  10:.\main.c      **** 
  11:.\main.c      **** int main()
  12:.\main.c      **** {
  28              		.loc 1 12 0
  29              		.cfi_startproc
  30              		@ args = 0, pretend = 0, frame = 56
  31              		@ frame_needed = 0, uses_anonymous_args = 0
  32 0000 F0B5     		push	{r4, r5, r6, r7, lr}
  33              		.cfi_def_cfa_offset 20
  34              		.cfi_offset 4, -20
  35              		.cfi_offset 5, -16
  36              		.cfi_offset 6, -12
  37              		.cfi_offset 7, -8
  38              		.cfi_offset 14, -4
  39 0002 8FB0     		sub	sp, sp, #60
  40              		.cfi_def_cfa_offset 80
  13:.\main.c      ****     CyGlobalIntEnable; /* Enable global interrupts. */
  41              		.loc 1 13 0
  42              	@ 13 ".\main.c" 1
  43 0004 62B6     		CPSIE   i
  44              	@ 0 "" 2
ARM GAS  C:\Users\Digi-Key\AppData\Local\Temp\ccB1a1GB.s 			page 2


  14:.\main.c      **** 
  15:.\main.c      ****     /*Start Components*/ 
  16:.\main.c      ****     
  17:.\main.c      ****     ADC_Start(); 
  45              		.loc 1 17 0
  46              		.thumb
  47 0006 FFF7FEFF 		bl	ADC_Start
  48              	.LVL0:
  18:.\main.c      ****     VDAC_Start(); 
  49              		.loc 1 18 0
  50 000a FFF7FEFF 		bl	VDAC_Start
  51              	.LVL1:
  19:.\main.c      ****     UART_Start(); 
  52              		.loc 1 19 0
  53 000e FFF7FEFF 		bl	UART_Start
  54              	.LVL2:
  20:.\main.c      ****     
  21:.\main.c      ****     /*Declare variables*/ 
  22:.\main.c      ****     uint16 ADC_reading; 
  23:.\main.c      ****     float voltage; 
  24:.\main.c      ****     char  output_string[50]; 
  25:.\main.c      ****     uint8 i = 0; 
  26:.\main.c      **** 
  27:.\main.c      ****     while(1)
  28:.\main.c      ****     {
  29:.\main.c      ****         
  30:.\main.c      ****         for (i = 0; i < 255; i++)
  55              		.loc 1 30 0
  56 0012 0024     		movs	r4, #0
  31:.\main.c      ****         {
  32:.\main.c      ****             VDAC_SetValue(i);   //increment VDAC output 
  33:.\main.c      ****             
  34:.\main.c      ****             ADC_StartConvert(); // read Vdac output 
  35:.\main.c      ****             
  36:.\main.c      ****             ADC_reading = ADC_GetResult16(); 
  37:.\main.c      ****             
  38:.\main.c      ****             voltage = ADC_CountsTo_Volts(ADC_reading); 
  39:.\main.c      ****            
  40:.\main.c      ****             
  41:.\main.c      ****             sprintf(output_string, "%9.6f", voltage); 
  57              		.loc 1 41 0
  58 0014 124E     		ldr	r6, .L6
  42:.\main.c      ****             UART_PutString(output_string); //print to UART 
  43:.\main.c      ****             UART_PutString("\r\n");           
  59              		.loc 1 43 0
  60 0016 134D     		ldr	r5, .L6+4
  30:.\main.c      ****         for (i = 0; i < 255; i++)
  61              		.loc 1 30 0
  62 0018 2746     		mov	r7, r4
  63 001a 1CE0     		b	.L5
  64              	.LVL3:
  65              	.L3:
  32:.\main.c      ****             VDAC_SetValue(i);   //increment VDAC output 
  66              		.loc 1 32 0 discriminator 2
  67 001c 2046     		mov	r0, r4
  68 001e FFF7FEFF 		bl	VDAC_SetValue
  69              	.LVL4:
ARM GAS  C:\Users\Digi-Key\AppData\Local\Temp\ccB1a1GB.s 			page 3


  34:.\main.c      ****             ADC_StartConvert(); // read Vdac output 
  70              		.loc 1 34 0 discriminator 2
  71 0022 FFF7FEFF 		bl	ADC_StartConvert
  72              	.LVL5:
  36:.\main.c      ****             ADC_reading = ADC_GetResult16(); 
  73              		.loc 1 36 0 discriminator 2
  74 0026 FFF7FEFF 		bl	ADC_GetResult16
  75              	.LVL6:
  38:.\main.c      ****             voltage = ADC_CountsTo_Volts(ADC_reading); 
  76              		.loc 1 38 0 discriminator 2
  77 002a 80B2     		uxth	r0, r0
  78 002c FFF7FEFF 		bl	ADC_CountsTo_Volts
  79              	.LVL7:
  41:.\main.c      ****             sprintf(output_string, "%9.6f", voltage); 
  80              		.loc 1 41 0 discriminator 2
  81 0030 FFF7FEFF 		bl	__aeabi_f2d
  82              	.LVL8:
  83 0034 0246     		mov	r2, r0
  84 0036 0B46     		mov	r3, r1
  85 0038 01A8     		add	r0, sp, #4
  86 003a 3146     		mov	r1, r6
  87 003c FFF7FEFF 		bl	sprintf
  88              	.LVL9:
  42:.\main.c      ****             UART_PutString(output_string); //print to UART 
  89              		.loc 1 42 0 discriminator 2
  90 0040 01A8     		add	r0, sp, #4
  91 0042 FFF7FEFF 		bl	UART_PutString
  92              	.LVL10:
  93              		.loc 1 43 0 discriminator 2
  94 0046 2846     		mov	r0, r5
  95 0048 FFF7FEFF 		bl	UART_PutString
  96              	.LVL11:
  44:.\main.c      ****             
  45:.\main.c      ****             CyDelay(250); 
  97              		.loc 1 45 0 discriminator 2
  98 004c FA20     		movs	r0, #250
  99 004e FFF7FEFF 		bl	CyDelay
 100              	.LVL12:
  30:.\main.c      ****         for (i = 0; i < 255; i++)
 101              		.loc 1 30 0 discriminator 2
 102 0052 0134     		adds	r4, r4, #1
 103              	.LVL13:
 104 0054 E4B2     		uxtb	r4, r4
 105              	.LVL14:
 106              	.L5:
  30:.\main.c      ****         for (i = 0; i < 255; i++)
 107              		.loc 1 30 0 is_stmt 0 discriminator 1
 108 0056 FF2C     		cmp	r4, #255
 109 0058 E0D1     		bne	.L3
  30:.\main.c      ****         for (i = 0; i < 255; i++)
 110              		.loc 1 30 0
 111 005a 3C46     		mov	r4, r7
 112              	.LVL15:
 113 005c FBE7     		b	.L5
 114              	.L7:
 115 005e 00BF     		.align	2
 116              	.L6:
ARM GAS  C:\Users\Digi-Key\AppData\Local\Temp\ccB1a1GB.s 			page 4


 117 0060 00000000 		.word	.LC0
 118 0064 08000000 		.word	.LC1
 119              		.cfi_endproc
 120              	.LFE63:
 121              		.size	main, .-main
 122              		.section	.rodata.str1.4,"aMS",%progbits,1
 123              		.align	2
 124              	.LC0:
 125 0000 25392E36 		.ascii	"%9.6f\000"
 125      6600
 126 0006 0000     		.space	2
 127              	.LC1:
 128 0008 0D0A00   		.ascii	"\015\012\000"
 129 000b 00       		.text
 130              	.Letext0:
 131              		.file 2 "c:\\program files (x86)\\cypress\\psoc creator\\3.2\\psoc creator\\import\\gnu\\arm\\4.8.
 132              		.file 3 "c:\\program files (x86)\\cypress\\psoc creator\\3.2\\psoc creator\\import\\gnu\\arm\\4.8.
 133              		.file 4 "Generated_Source\\PSoC5/cytypes.h"
 134              		.file 5 "Generated_Source\\PSoC5/ADC.h"
 135              		.file 6 "Generated_Source\\PSoC5/VDAC.h"
 136              		.file 7 "Generated_Source\\PSoC5/UART.h"
 137              		.file 8 "c:\\program files (x86)\\cypress\\psoc creator\\3.2\\psoc creator\\import\\gnu\\arm\\4.8.
 138              		.file 9 "Generated_Source\\PSoC5/core_cm3.h"
 139              		.file 10 "Generated_Source\\PSoC5/CyLib.h"